(dp0
I1
I3265
sI2
I5615
sI3
I3265
sI4
I3265
sI6
I6830
sI7
I3265
sI8
I3265
sI11
I12333
sI13
I3265
sI14
I3333
sI15
I3333
sI16
I6830
sI18
I6830
sI20
I3265
sI24
I7922
sI26
I6830
sI32
I20001
sI33
I6830
sI34
I6830
sI38
I3265
sI39
I3215
sI40
I2119
sI41
I12322
sI42
I3265
sI43
NsI44
I60432
sI45
I12322
sI46
I3320
sI47
I20815
sI48
I31562
sI51
I7418
sI52
I29492
sI55
I20712
sI56
I3320
sI57
I20621
sI58
I6734
sI59
I9063
sI60
I3303
sI61
I31334
sI63
I15547
sI65
I2856
sI66
I3215
sI67
I31334
sI69
I2119
sI71
I50629
sI73
I41682
sI75
I701
sI77
I17552
sI78
I12083
sI79
I5089
sI81
I29562
sI82
I25560
sI84
I3320
sI85
I7018
sI86
I22773
sI88
I3292
sI91
I6871
sI92
I12859
sI93
I681
sI94
I6830
sI95
I6871
sI97
I12145
sI98
I8926
sI99
I378
sI100
I28017
sI102
I786
sI103
I20115
sI105
I12513
sI107
I3265
sI110
I3238
sI114
I2607
sI115
I29422
sI116
I15516
sI118
I8473
sI121
I41164
sI122
I2852
sI125
I22773
sI126
I29067
sI127
I6830
sI131
I36856
sI132
I27699
sI133
I25454
sI134
I3292
sI137
I3257
sI138
I39029
sI141
I3303
sI142
I12637
sI143
I29134
sI144
I12637
sI145
I8973
sI146
I6939
sI147
I8903
sI148
I6881
sI149
I5432
sI150
I15744
sI153
I29695
sI154
I3301
sI156
I29140
sI157
I6871
sI158
I25441
sI159
I6805
sI162
I24638
sI163
I8997
sI164
I6830
sI165
I42548
sI166
I719
sI167
I5615
sI168
I42610
sI169
I34244
sI174
I6830
sI175
I2607
sI176
I41034
sI182
I16086
sI184
I15389
sI189
I3233
sI190
I7922
sI191
I6830
sI193
I5387
sI194
I39309
sI195
I1213
sI197
I3215
sI198
I31334
sI199
I766
sI202
I1901
sI203
I7477
sI204
I3209
sI205
I39839
sI206
I3320
sI209
I12513
sI211
I6830
sI212
I4739
sI213
I12731
sI214
I50304
sI217
I15474
sI218
I2852
sI220
I9340
sI223
I5645
sI224
I8331
sI227
I6083
sI229
I5432
sI231
I29670
sI233
I13045
sI234
I2497
sI236
I1103
sI237
I3333
sI238
I2107
sI239
I8346
sI241
I8359
sI242
I3741
sI243
I10481
sI244
I47595
sI246
I6830
sI248
I30971
sI249
I137
sI250
I13030
sI254
I13105
sI257
I3209
sI259
I15598
sI265
I39912
sI266
I12931
sI267
I12337
sI268
I3329
sI269
I2602
sI270
I31334
sI272
NsI273
I34555
sI274
I15598
sI276
NsI277
I3320
sI279
I31641
sI280
I20955
sI281
I7922
sI282
I20845
sI283
I5089
sI284
I39617
sI285
I3301
sI286
I2856
sI289
I13188
sI293
I6830
sI297
I13285
sI298
I3292
sI299
I39839
sI300
I3352
sI301
I45345
sI302
I39554
sI304
I209
sI305
I24560
sI306
I38299
sI307
I2518
sI308
I3292
sI310
I39493
sI314
I20712
sI316
I31334
sI317
I49909
sI319
I1909
sI320
I8607
sI322
I15435
sI324
I44381
sI325
I6830
sI326
I3320
sI328
I13037
sI329
I3605
sI330
I8508
sI331
I7377
sI332
I12709
sI333
I17676
sI334
I6739
sI335
I513
sI339
I21060
sI341
I3352
sI342
I28000
sI343
I8997
sI344
I49909
sI345
I1734
sI348
I39837
sI350
I12322
sI353
I8426
sI357
I1764
sI361
I3301
sI363
I6830
sI365
I8916
sI366
I31638
sI370
I28707
sI371
I20712
sI373
I3301
sI376
I12874
sI378
I51815
sI379
I6724
sI380
I25192
sI381
I251
sI382
I6805
sI383
I2119
sI385
I51468
sI386
I5381
sI390
I27678
sI392
I6799
sI394
I7922
sI395
I33980
sI396
I30781
sI398
I3352
sI400
I6939
sI401
I8359
sI402
I3320
sI404
I20676
sI405
I766
sI406
I251
sI407
I8763
sI410
I44581
sI412
I9121
sI414
I1853
sI418
I44489
sI419
I5603
sI420
I2850
sI421
I12731
sI422
I5603
sI423
I45274
sI425
I8190
sI426
I6939
sI428
I12381
sI429
I3265
sI430
I16353
sI431
I137
sI433
I39029
sI434
I5538
sI435
I15743
sI436
I3320
sI437
I29695
sI438
I9143
sI439
I12322
sI442
I701
sI446
I37708
sI448
I3352
sI449
I10474
sI450
I1759
sI452
I13030
sI453
I2485
sI456
I34245
sI459
I29449
sI461
I5539
sI462
I49534
sI465
I5089
sI466
I8447
sI468
I10796
sI471
I13030
sI472
I8218
sI473
I3741
sI474
I1835
sI475
I3265
sI480
I3320
sI482
I42289
sI483
I4538
sI485
I15557
sI502
I25229
sI503
I17975
sI506
I47834
sI507
I50620
sI508
I35540
sI509
I35625
sI512
NsI513
I719
sI516
I51541
sI518
I29075
sI519
I51155
sI523
I197422
sI524
I199399
sI525
I48957
sI526
I16242
sI529
I25596
sI533
I24851
sI534
NsI538
I16154
sI539
I15782
sI541
I35819
sI544
NsI549
I6830
sI550
I12322
sI555
I680
sI556
I31213
sI558
I12628
sI559
I5408
sI560
I6805
sI563
I13306
sI566
I760
sI567
I2609
sI570
I13037
sI571
I202236
sI572
I8632
sI573
I35625
sI574
I3292
sI575
I6739
sI576
I15527
sI578
I1764
sI579
I30972
sI580
I34108
sI582
I8376
sI583
I35432
sI586
I202236
sI587
I9031
sI588
I202236
sI589
I1853
sI593
I49800
sI595
I7922
sI597
NsI599
I12322
sI600
I50168
sI601
I13124
sI603
I16086
sI605
I28905
sI607
I56791
sI610
I34688
sI611
I47408
sI614
I51944
sI615
I8303
sI616
I51290
sI617
I15605
sI620
I6893
sI621
I24689
sI622
I2116
sI623
I56472
sI624
I3292
sI626
I35401
sI627
I3292
sI628
I43782
sI629
I50620
sI631
I1103
sI632
I3352
sI633
I2847
sI635
I35320
sI637
I39904
sI639
I196687
sI640
I8426
sI641
I41419
sI642
NsI644
I16347
sI645
I25534
sI650
I12874
sI651
I21021
sI652
I42569
sI653
I25229
sI654
I12754
sI655
I5391
sI656
I1853
sI657
I34814
sI659
I13041
sI661
I51405
sI665
I1653
sI666
I21263
sI667
I12871
sI668
I42514
sI669
I33924
sI670
I197186
sI672
I31543
sI673
I39791
sI674
I42431
sI675
I38955
sI677
I8877
sI681
I35731
sI682
I28907
sI683
I51182
sI684
I31510
sI685
I42727
sI686
I2602
sI688
I34279
sI689
I1221
sI690
I2109
sI691
I3292
sI694
I35100
sI696
I12754
sI697
I5479
sI698
I34279
sI699
I29632
sI702
I44869
sI703
I21409
sI704
I21466
sI705
I3327
sI706
I3320
sI708
I41381
sI711
I3243
sI712
I12874
sI713
I20912
sI714
I62418
sI715
I3352
sI717
I25187
sI718
I50629
sI719
I2611
sI720
I34554
sI722
I3243
sI723
I29278
sI724
I1930
sI725
I6830
sI726
I39759
sI727
I20485
sI728
I13238
sI730
I197971
sI731
I42760
sI732
I41073
sI733
I20485
sI735
I8767
sI736
I21175
sI737
I16234
sI738
I39759
sI739
I20900
sI741
I42374
sI744
I8473
sI745
I15696
sI746
I39935
sI747
I50348
sI748
I43751
sI750
I13101
sI751
I8728
sI752
I174
sI753
I43950
sI754
I29208
sI755
I2119
sI758
I2259
sI759
I31644
sI761
I13037
sI763
I3292
sI764
I1955
sI767
I9044
sI769
I42009
sI771
I51515
sI772
I25538
sI775
I3269
sI776
I3292
sI778
I20741
sI779
I50458
sI780
I41495
sI781
I3269
sI783
I6830
sI784
I12816
sI785
I12322
sI786
I44869
sI787
I44514
sI788
I41589
sI789
I13101
sI790
I12322
sI792
I1764
sI795
I24806
sI796
I1835
sI797
I29695
sI799
I30764
sI801
I209
sI802
I6871
sI803
I12353
sI806
I8468
sI807
I2119
sI808
I1739
sI809
NsI810
I9031
sI812
I12502
sI813
I29355
sI814
I41000
sI815
I23655
sI817
I8468
sI818
I786
sI819
NsI820
I24956
sI821
I50558
sI822
I3320
sI823
I8879
sI824
I12322
sI825
I20712
sI826
I3213
sI827
I51523
sI828
I2856
sI829
I30851
sI830
I43382
sI831
I29017
sI832
I21034
sI833
I29422
sI834
I8648
sI835
I9150
sI836
I12322
sI837
I48854
sI838
I3215
sI839
I202895
sI841
I31027
sI842
I29695
sI843
I15764
sI844
I199071
sI845
I3215
sI846
I8473
sI847
I49342
sI848
I15810
sI849
I32653
sI850
I12360
sI852
I13037
sI853
I21309
sI856
I2856
sI857
I2856
sI858
I31712
sI859
I3215
sI860
I3320
sI861
I12874
sI862
I5089
sI863
I6057
sI865
I31712
sI867
I25376
sI868
I32653
sI869
I39651
sI870
I44257
sI872
I42109
sI873
I3320
sI875
I28878
sI876
I50056
sI877
I3215
sI879
I8473
sI880
I28878
sI881
I43081
sI882
I12502
sI883
I43127
sI887
I41079
sI888
I25048
sI889
I47814
sI890
I34347
sI892
I12594
sI893
I29121
sI895
I41075
sI896
I201701
sI898
I34019
sI899
I34878
sI900
I2116
sI901
I31334
sI902
I13041
sI904
I12322
sI905
I3320
sI907
I43350
sI910
I31334
sI911
I39857
sI912
I1267
sI914
I51815
sI915
I57169
sI916
I6830
sI917
I8677
sI918
I12353
sI919
I680
sI920
I43733
sI924
I8447
sI925
NsI926
I56740
sI927
I6057
sI928
I56329
sI929
I48954
sI930
I8447
sI933
I20880
sI934
I9145
sI935
I51815
sI936
I3269
sI938
I6830
sI939
I31019
sI942
I6830
sI943
I3320
sI945
I6830
sI949
I51093
sI951
I20612
sI952
I5410
sI955
I21175
sI956
I3303
sI959
I1836
sI960
I30737
sI962
I8758
sI964
I34612
sI965
I34602
sI966
I5503
sI968
I6805
sI970
NsI972
I12353
sI973
I1759
sI974
I3269
sI975
I3320
sI976
I12322
sI978
I2860
sI979
I35366
sI980
I31027
sI982
I47527
sI983
I15945
sI986
I21502
sI989
I3265
sI991
I5607
sI993
I10113
sI994
I9182
sI996
I49362
sI997
I9143
sI998
I16097
sI999
I9143
sI1000
I4804
sI1001
I701
sI1002
I4739
sI1003
I9269
sI1004
I9908
sI1008
I4134
sI1009
I4739
sI1013
I17886
sI1014
NsI1015
NsI1016
I38657
sI1018
I4768
sI1019
NsI1022
I38037
sI1029
I6939
sI1031
I1221
sI1033
I9304
sI1035
I4802
sI1036
I7575
sI1037
I55430
sI1040
NsI1041
I7545
sI1042
I7642
sI1043
NsI1044
I4739
sI1046
I7922
sI1047
I9735
sI1048
I13285
sI1049
NsI1050
I132003
sI1051
I1221
sI1052
I134111
sI1053
I7922
sI1054
NsI1058
I7922
sI1060
I4764
sI1063
NsI1066
NsI1068
I4804
sI1069
I45935
sI1070
I38731
sI1072
I9822
sI1073
NsI1075
I4804
sI1078
I133786
sI1080
NsI1083
I45942
sI1087
I60725
sI1093
I133124
sI1101
I40448
sI1102
I22773
sI1105
I36375
sI1107
I17253
sI1109
I852
sI1110
I174
sI1112
I4739
sI1113
I16881
sI1115
I1403
sI1116
I7922
sI1117
I6057
sI1118
I11260
sI1119
I7922
sI1121
I11427
sI1122
I7922
sI1123
I7922
sI1126
I5645
sI1127
I701
sI1130
I16842
sI1131
I7922
sI1133
I7922
sI1134
I12271
sI1136
I4181
sI1137
I852
sI1139
NsI1140
I855
sI1142
I7922
sI1144
I27537
sI1147
NsI1149
I33363
sI1151
I4150
sI1154
I22047
sI1157
I2856
sI1158
I7922
sI1160
I7922
sI1163
I16842
sI1164
I26711
sI1165
I20001
sI1168
NsI1169
I27
sI1170
I10481
sI1171
I33080
sI1174
I13489
sI1178
I20001
sI1179
I701
sI1184
I7922
sI1185
I7922
sI1186
I7922
sI1187
I251
sI1189
I6128
sI1190
I27699
sI1192
I7477
sI1193
I3257
sI1194
I7922
sI1196
I7018
sI1198
I5650
sI1203
I12312
sI1205
I31042
sI1206
I6830
sI1207
I5089
sI1211
I48161
sI1212
I13030
sI1213
I9143
sI1216
I35540
sI1217
I8997
sI1218
I34497
sI1219
I28855
sI1223
I39102
sI1224
I5576
sI1225
I5607
sI1226
I12322
sI1227
I8359
sI1228
I786
sI1229
I48161
sI1230
I3245
sI1232
I20875
sI1235
I34594
sI1237
I21246
sI1238
I34225
sI1240
I35612
sI1241
I20485
sI1243
I47394
sI1244
I42560
sI1245
I2119
sI1246
NsI1247
I6830
sI1248
NsI1249
I15788
sI1250
I9039
sI1251
I3245
sI1252
I35152
sI1254
I39392
sI1255
I3245
sI1256
I3303
sI1260
I2108
sI1261
I5524
sI1263
I35540
sI1267
I51407
sI1268
I12322
sI1269
I3245
sI1272
I12874
sI1275
I25512
sI1276
I39923
sI1277
I198169
sI1280
I3320
sI1281
I21079
sI1283
I34594
sI1284
I35832
sI1285
I3243
sI1290
I51483
sI1293
I2108
sI1296
NsI1297
I44345
sI1300
I199361
sI1302
I6871
sI1303
I25512
sI1304
I6730
sI1305
I30880
sI1306
I13045
sI1310
I48200
sI1312
I15943
sI1313
I6830
sI1314
I5089
sI1315
I25091
sI1316
I25086
sI1317
I31078
sI1318
I4804
sI1320
I50446
sI1321
NsI1322
I12322
sI1323
I5603
sI1324
I2614
sI1326
I8820
sI1327
I35548
sI1328
I12353
sI1329
I8542
sI1330
I6830
sI1332
NsI1333
I8473
sI1334
I3265
sI1336
I31334
sI1337
I31122
sI1338
I6830
sI1340
I8334
sI1341
I39264
sI1342
I48417
sI1343
I3320
sI1344
I31042
sI1346
I3243
sI1347
I9143
sI1350
I6805
sI1351
I6830
sI1352
I3209
sI1354
I12897
sI1355
I41655
sI1357
I31042
sI1359
I60294
sI1360
I48173
sI1362
I8812
sI1363
I3269
sI1364
I8973
sI1365
I2856
sI1367
I3329
sI1369
NsI1370
I12337
sI1372
I8767
sI1373
NsI1375
I5089
sI1381
I6830
sI1382
I15557
sI1384
I719
sI1385
I12751
sI1387
I20845
sI1388
I25279
sI1389
I6706
sI1393
I16086
sI1394
I786
sI1395
I5089
sI1396
I8752
sI1397
I6830
sI1400
I44574
sI1401
I42579
sI1404
I29691
sI1405
I3209
sI1406
I21502
sI1408
I16876
sI1409
I51458
sI1410
I39756
sI1412
I25441
sI1415
I31078
sI1419
NsI1421
I8943
sI1422
I7018
sI1423
I3265
sI1425
I20712
sI1429
I38930
sI1430
I8972
sI1431
I201011
sI1433
I3303
sI1434
I25415
sI1442
I1273
sI1443
I559
sI1444
I50300
sI1446
I20712
sI1447
I30722
sI1448
NsI1451
I12312
sI1454
I15689
sI1456
NsI1457
I31283
sI1458
I20694
sI1459
I35540
sI1461
I34019
sI1462
I6805
sI1463
I8859
sI1464
I42579
sI1467
I42077
sI1469
I13036
sI1472
I198930
sI1476
I12709
sI1477
I3320
sI1481
I8972
sI1483
I6805
sI1484
I3330
sI1485
I31334
sI1486
I50989
sI1488
I49375
sI1489
I12322
sI1490
I6830
sI1491
I12813
sI1493
I39756
sI1494
I1120
sI1496
I24904
sI1497
I3320
sI1500
I8399
sI1501
I3303
sI1503
I2119
sI1504
I5396
sI1505
I41710
sI1506
I48284
sI1507
I15557
sI1511
I6830
sI1512
I6871
sI1514
I30933
sI1520
I5396
sI2001
I12715
sI2002
I8283
sI2007
I6830
sI2009
I3333
sI2010
I35100
sI2011
I3320
sI2014
I29540
sI2015
I39647
sI2016
I13037
sI2017
I13037
sI2018
I8676
sI2020
I3265
sI2021
I13030
sI2023
I3352
sI2024
I6805
sI2026
I48039
sI2027
I6830
sI2029
I6830
sI2030
I20712
sI2033
I21396
sI2036
I3215
sI2038
I21155
sI2039
I31424
sI2040
I39608
sI2041
I35244
sI2042
I3320
sI2044
I196948
sI2047
I9143
sI2048
I3265
sI2049
I3320
sI2050
I8437
sI2051
I52030
sI2052
I8365
sI2054
I25148
sI2057
I3320
sI2059
I29518
sI2060
I25180
sI2061
I56621
sI2062
I37002
sI2063
I47407
sI2064
I196803
sI2066
I680
sI2067
I5603
sI2068
I3320
sI2069
I3215
sI2070
I1741
sI2071
I15557
sI2073
I20712
sI2074
I33988
sI2075
I6805
sI2076
I44611
sI2078
I31078
sI2081
I9145
sI2083
I31708
sI2085
I8445
sI2087
I50583
sI2090
I31549
sI2091
I12963
sI2092
I5089
sI2093
I37002
sI2094
I3301
sI2097
I3320
sI2098
I8758
sI2101
I9031
sI2104
I13037
sI2105
I35012
sI2106
I3215
sI2107
I2856
sI2108
I3320
sI2110
I8897
sI2112
I12579
sI2114
I6830
sI2116
I15879
sI2117
I3243
sI2121
I44141
sI2122
I2856
sI2123
I7575
sI2124
I3215
sI2126
I16246
sI2129
I132162
sI2131
I1955
sI2132
I56478
sI2134
I8897
sI2136
I59469
sI2138
I20712
sI2140
I203953
sI2141
I3209
sI2143
I57381
sI2144
I3320
sI2146
I3320
sI2147
I6830
sI2153
I3320
sI2154
I199298
sI2155
I16316
sI2156
I3215
sI2157
I6848
sI2159
I13193
sI2160
I3216
sI2161
I15626
sI2162
I9167
sI2163
I12322
sI2164
I6855
sI2165
I8334
sI2168
I6830
sI2171
I4739
sI2172
I196922
sI2173
I8251
sI2175
I9167
sI2176
I3320
sI2177
I20712
sI2178
I33890
sI2179
I8767
sI2181
I12322
sI2182
I39815
sI2183
I8473
sI2185
I39545
sI2187
I35007
sI2189
I33920
sI2190
I30961
sI2191
I12897
sI2194
I8744
sI2195
I5610
sI2196
I6830
sI2197
I12322
sI2198
I8708
sI2200
I16016
sI2204
I21131
sI2205
I29252
sI2206
I6830
sI2208
I8767
sI2209
I48500
sI2212
I13030
sI2213
I43408
sI2217
I31334
sI2218
I12969
sI2220
I51906
sI2221
I39288
sI2223
I15772
sI2224
NsI2225
I13030
sI2226
I2200
sI2227
I3320
sI2228
I24725
sI2229
I12731
sI2234
I2860
sI2235
I37284
sI2237
I3320
sI2238
I3255
sI2239
I39205
sI2240
I12545
sI2241
I41872
sI2242
I34533
sI2243
I5384
sI2246
I6830
sI2247
I29680
sI2248
I20634
sI2249
I29355
sI2250
I29355
sI2252
I1836
sI2253
I44574
sI2256
I2860
sI2257
I51093
sI2259
I12833
sI2260
I196655
sI2261
I197696
sI2262
I34863
sI2263
I20712
sI2265
I20723
sI2266
I20766
sI2268
I8396
sI2269
I9009
sI2270
I51675
sI2271
I35432
sI2272
I3320
sI2273
I3215
sI2274
I5567
sI2275
I680
sI2277
I2514
sI2279
I2259
sI2280
I9609
sI2281
I34171
sI2282
I15401
sI2283
I2497
sI2285
I7922
sI2287
I41854
sI2288
I47698
sI2289
I20001
sI2290
I12480
sI2292
I39405
sI2293
I6830
sI2296
I1103
sI2297
I7922
sI2299
I4685
sI2302
I15657
sI2303
I702
sI2305
I553
sI2306
I41164
sI2307
I48299
sI2308
I34911
sI2309
I31250
sI2310
I3320
sI2311
I1133
sI2314
I6830
sI2315
I9143
sI2316
I12513
sI2317
I2856
sI2318
I20836
sI2319
I29072
sI2320
I48299
sI2321
I25596
sI2322
I3320
sI2324
I3301
sI2325
I44066
sI2326
I3320
sI2329
I13243
sI2330
I3269
sI2331
I29672
sI2332
I3320
sI2333
I2200
sI2334
I16316
sI2336
I1955
sI2338
I3243
sI2339
I43942
sI2341
I21502
sI2343
I20712
sI2345
I29355
sI2346
I29355
sI2347
I2860
sI2350
I5607
sI2351
I2119
sI2352
I6830
sI2353
I6830
sI2355
I5432
sI2357
I9143
sI2358
I8401
sI2359
I57821
sI2360
I51871
sI2361
I7922
sI2363
I16086
sI2364
I3209
sI2365
I35158
sI2366
I3329
sI2367
I16242
sI2368
I39713
sI2369
I44712
sI2371
I8447
sI2373
I6871
sI2374
I6830
sI2376
I12353
sI2378
I34442
sI2379
I680
sI2380
I39925
sI2383
I29562
sI2385
I9143
sI2387
I6830
sI2391
I8304
sI2392
I39310
sI2395
I15800
sI2400
I3320
sI2401
I201508
sI2402
I701
sI2403
I3943
sI2405
I21021
sI2406
I766
sI2407
I15435
sI2410
NsI2413
I12570
sI2414
I5607
sI2415
I12333
sI2416
I39647
sI2417
I20676
sI2418
I20712
sI2419
I8267
sI2420
I5432
sI2424
I3265
sI2425
I6830
sI2427
I11426
sI2428
I3320
sI2430
I31334
sI2431
I3320
sI2432
I8764
sI2434
I6805
sI2437
I20712
sI2438
NsI2439
I20712
sI2442
I12876
sI2443
I31334
sI2444
I3320
sI2445
I5413
sI2447
I35540
sI2448
I8220
sI2449
I3292
sI2451
I12322
sI2452
I12322
sI2453
I3320
sI2455
I8473
sI2457
I34878
sI2458
I49272
sI2459
I21219
sI2460
I3215
sI2462
I9143
sI2463
I9143
sI2464
I36905
sI2465
I3320
sI2469
I6830
sI2470
I3320
sI2471
I9143
sI2472
I15557
sI2474
I12322
sI2475
I8310
sI2477
I3320
sI2478
I3209
sI2480
I25229
sI2481
I2856
sI2483
I6848
sI2486
I12322
sI2487
I49974
sI2491
I6830
sI2494
I44217
sI2495
I12874
sI2496
I48438
sI2498
I15716
sI2503
I174
sI2504
I198420
sI2506
I31334
sI2507
NsI2511
I12322
sI2515
I6730
sI2516
I20860
sI2517
I198455
sI2518
I2200
sI2519
I5089
sI2520
I6871
sI2521
I12322
sI2522
I15557
sI2523
I9143
sI2524
I39790
sI2525
I6871
sI2527
I6830
sI2529
I7922
sI2532
I42675
sI2533
I5588
sI2535
I20712
sI2536
I3320
sI2537
I3215
sI2539
I8228
sI2542
I31592
sI2545
I250
sI2546
I10143
sI2549
I6079
sI2550
I5089
sI2551
I8319
sI2552
I25145
sI2553
I20766
sI2555
I5089
sI2556
I20647
sI2557
I8319
sI2559
I43321
sI2561
I3265
sI2562
I203953
sI2565
I3265
sI2566
I2200
sI2567
I7922
sI2569
NsI2571
I12322
sI2572
I6830
sI2573
I197996
sI2576
I31214
sI2577
I49010
sI2578
I6799
sI2579
I680
sI2580
I3265
sI2581
I6830
sI2582
I6799
sI2583
I39651
sI2587
I12322
sI2591
I40528
sI2592
I7922
sI2594
I6830
sI2595
I35699
sI2596
I8708
sI2597
I6830
sI2598
I20555
sI2603
I41164
sI2604
I199603
sI2605
I43751
sI2608
I37542
sI2609
I6830
sI2610
I50530
sI2611
I9143
sI2612
I49409
sI2615
I31334
sI2619
I12597
sI2622
I34304
sI2623
I12322
sI2626
I51871
sI2627
I33660
sI2629
I12322
sI2630
I12874
sI2632
I35244
sI2638
I57710
sI2639
I3352
sI2641
I8708
sI2646
I198455
sI2648
I29695
sI2650
I3320
sI2651
I20712
sI2653
I29562
sI2656
I12322
sI2662
I31334
sI2664
I56430
sI2666
I60427
sI2667
I29695
sI2669
I56430
sI2671
I6848
sI2674
I4788
sI2677
I198455
sI2678
I201366
sI2681
I13037
sI2682
I13189
sI2683
I6848
sI2684
I12714
sI2685
I7922
sI2689
I15557
sI2690
I34572
sI2691
I5419
sI2692
I8473
sI2694
I5089
sI2695
I198644
sI2697
I39912
sI2698
I8468
sI2699
I31334
sI2702
I3320
sI2704
I35540
sI2705
NsI2707
I12337
sI2708
I25310
sI2711
I14949
sI2712
I22047
sI2713
I60706
sI2714
I23141
sI2715
I3209
sI2718
I44549
sI2722
I20712
sI2728
I31334
sI2729
I13103
sI2730
I3320
sI2731
NsI2732
I5404
sI2733
I12337
sI2735
I3303
sI2736
I6830
sI2739
I3320
sI2743
I6830
sI2744
I35559
sI2748
I12586
sI2750
I48111
sI2751
I12874
sI2752
I3209
sI2753
I41164
sI2754
I8551
sI2755
I12322
sI2758
I29084
sI2759
I3320
sI2761
I50244
sI2762
I5384
sI2763
I14905
sI2764
I12310
sI2767
I3320
sI2769
I6079
sI2770
I9443
sI2772
I30764
sI2776
I9158
sI2777
I3320
sI2778
I3292
sI2779
I12355
sI2780
NsI2781
I24956
sI2783
I3215
sI2784
NsI2790
I25521
sI2792
I49010
sI2793
I36483
sI2795
NsI2796
I31103
sI2797
I3265
sI2798
I31078
sI2800
I3320
sI2801
I57079
sI2802
NsI2804
I1764
sI2805
I6871
sI2806
I6830
sI2807
I12310
sI2808
NsI2809
I8767
sI2810
I6400
sI2812
I5404
sI2813
I6739
sI2814
I12310
sI2815
I31042
sI2816
I9125
sI2817
I29695
sI2818
I35244
sI2820
I35826
sI2823
I4804
sI2824
I15451
sI2825
I21175
sI2826
I5089
sI2827
I35518
sI2829
I852
sI2831
I52092
sI2833
I49463
sI2836
I7922
sI2841
I4739
sI2843
I47395
sI2844
I49362
sI2847
I39906
sI2848
I12322
sI2851
I42313
sI2852
I16316
sI2856
I15527
sI2858
I19255
sI2859
I2116
sI2861
I8764
sI2862
I34056
sI2863
I15600
sI2864
I12615
sI2866
I33885
sI2867
I3320
sI2868
I55895
sI2872
I39045
sI2873
I6830
sI2874
I7922
sI2877
I3320
sI2878
I2516
sI2881
I12969
sI2883
NsI2884
I3320
sI2886
I1853
sI2887
I15451
sI2891
I2516
sI2892
I57119
sI2894
I8426
sI2895
I23783
sI2896
I2907
sI2897
I8220
sI2898
I2527
sI2900
I5089
sI2901
I5588
sI2903
I29208
sI2905
I8708
sI2906
I48685
sI2907
I13092
sI2908
I5089
sI2914
I15685
sI2915
I3327
sI2916
I5628
sI2917
I196949
sI2920
I31334
sI2922
I21232
sI2923
NsI2924
I8473
sI2925
I9021
sI2926
I8708
sI2927
I13272
sI2928
I262149
sI2930
I6830
sI2932
I35540
sI2934
I3209
sI2935
I45267
sI2937
I51728
sI2940
I5603
sI2941
I25394
sI2943
I43289
sI2944
I12303
sI2947
I3320
sI2950
I3329
sI2951
I6830
sI2952
I24889
sI2954
I6830
sI2955
I12741
sI2956
I49770
sI2957
I44034
sI2960
I3320
sI2961
I6830
sI2963
I6848
sI2968
I8779
sI2970
I28773
sI2972
I41678
sI2973
I559
sI2975
I25229
sI2976
I29695
sI2977
I6830
sI2978
I5607
sI2979
I8501
sI2980
I1103
sI2981
I8708
sI2982
I9050
sI2983
I12767
sI2986
I25229
sI2987
I12844
sI2992
I35320
sI2993
I50505
sI3001
I719
sI3004
I5610
sI3007
I198854
sI3008
I6866
sI3009
I198977
sI3010
I34409
sI3011
I3320
sI3012
I3215
sI3013
I29208
sI3014
I51184
sI3016
I43939
sI3017
I3209
sI3019
I5390
sI3021
I1221
sI3025
I6866
sI3026
I35807
sI3027
I6830
sI3028
I6799
sI3029
I5384
sI3031
I198977
sI3033
I12874
sI3036
I21430
sI3037
I4802
sI3038
I3215
sI3039
I3265
sI3041
I26785
sI3043
I680
sI3044
I5410
sI3045
I6830
sI3046
I1853
sI3047
I197264
sI3048
I2856
sI3053
I24823
sI3055
I6412
sI3059
I33873
sI3060
I1680
sI3062
I57069
sI3063
I34347
sI3070
I12871
sI3072
I198977
sI3074
I13124
sI3075
I8319
sI3078
NsI3081
I9143
sI3082
I2547
sI3083
I3308
sI3084
I3215
sI3085
I12741
sI3086
I25249
sI3087
I3215
sI3088
I45177
sI3091
I2857
sI3092
NsI3093
I5089
sI3094
I28792
sI3096
I51989
sI3098
I24823
sI3099
I47232
sI3102
I6871
sI3103
I7922
sI3104
I6830
sI3105
NsI3110
I6848
sI3111
I1853
sI3113
I6830
sI3115
I1241
sI3117
I35226
sI3118
I1853
sI3119
I1853
sI3126
I1241
sI3128
I6805
sI3129
I13156
sI3130
I12414
sI3131
I2860
sI3132
I1853
sI3134
I1853
sI3135
I6830
sI3136
I21263
sI3138
I1853
sI3139
I2529
sI3140
I49463
sI3142
I31334
sI3144
I9143
sI3145
I49463
sI3146
I3320
sI3147
I6871
sI3148
I1136
sI3150
I6805
sI3151
I13030
sI3153
I9143
sI3156
I3320
sI3157
I680
sI3159
I12513
sI3160
NsI3161
I1103
sI3162
I3320
sI3163
NsI3164
I34878
sI3165
I3320
sI3168
I16175
sI3169
I3243
sI3170
I9143
sI3172
I8228
sI3174
I31122
sI3176
I31334
sI3178
I2860
sI3182
I29169
sI3183
I16097
sI3184
I6830
sI3185
I12312
sI3186
I3320
sI3187
I6805
sI3188
I35612
sI3189
I59715
sI3191
I4760
sI3192
I3320
sI3193
I5089
sI3194
I25441
sI3201
NsI3202
I50503
sI3203
I680
sI3204
I49463
sI3205
I5432
sI3206
I20880
sI3207
I29562
sI3208
I3320
sI3210
I2856
sI3211
I1955
sI3212
I9143
sI3213
I20845
sI3214
I41657
sI3216
I198336
sI3217
NsI3218
I15038
sI3222
I6829
sI3225
I6661
sI3229
I680
sI3231
I41135
sI3235
NsI3237
I57866
sI3238
I9031
sI3239
I5607
sI3241
I2497
sI3244
NsI3245
I1955
sI3246
I41135
sI3247
I29243
sI3248
I1103
sI3249
I4713
sI3250
I35471
sI3252
I15038
sI3253
I34602
sI3254
I9143
sI3256
I42252
sI3260
I5617
sI3263
I62099
sI3264
I3265
sI3266
NsI3267
I35612
sI3269
I3292
sI3271
NsI3274
I3265
sI3275
NsI3276
I20845
sI3277
NsI3278
I3265
sI3280
I41135
sI3282
I12322
sI3283
I3301
sI3284
I12779
sI3286
I3265
sI3287
NsI3288
I20676
sI3289
I15943
sI3290
I29422
sI3291
I3215
sI3292
NsI3293
I50583
sI3294
I3320
sI3295
I5603
sI3297
I15943
sI3301
I8767
sI3303
I198869
sI3304
I20845
sI3305
I51164
sI3307
I2116
sI3308
I48972
sI3312
NsI3313
I199087
sI3319
I2116
sI3320
I3352
sI3323
NsI3324
I132797
sI3326
I20712
sI3327
I8820
sI3331
I6830
sI3332
I29355
sI3333
I3320
sI3334
I12779
sI3336
I20845
sI3337
I25384
sI3338
I8462
sI3340
I6799
sI3344
I8240
sI3345
I6661
sI3349
NsI3351
I3215
sI3352
I3303
sI3353
I39309
sI3354
NsI3355
I3333
sI3356
I12779
sI3357
I12502
sI3362
I29467
sI3363
I262438
sI3368
I20845
sI3369
I2856
sI3370
I4134
sI3372
I29355
sI3374
I198818
sI3375
I3249
sI3377
I41153
sI3379
I9143
sI3386
I4812
sI3389
I3302
sI3391
I197745
sI3395
I6830
sI3396
I3216
sI3398
NsI3400
I16086
sI3405
I2497
sI3406
I15943
sI3407
I9211
sI3408
I5089
sI3409
I15659
sI3411
I6830
sI3413
I174
sI3414
I3320
sI3419
I8997
sI3420
I9143
sI3421
NsI3422
I6830
sI3423
I3943
sI3425
I13037
sI3426
NsI3430
I3943
sI3432
I49624
sI3435
I29551
sI3438
NsI3440
NsI3441
I29321
sI3442
I198171
sI3443
I3741
sI3444
I7018
sI3446
I63112
sI3448
I29454
sI3449
NsI3450
I2516
sI3452
I1257
sI3454
I10474
sI3455
I50957
sI3456
I9008
sI3457
I4685
sI3460
I8522
sI3461
I2018
sI3462
I50957
sI3465
I3301
sI3466
I8047
sI3467
I29321
sI3468
I44134
sI3471
I3352
sI3474
I6661
sI3476
I6830
sI3479
I9188
sI3480
I6083
sI3481
I7922
sI3482
I44134
sI3483
I3582
sI3485
NsI3486
NsI3487
I4713
sI3491
I17506
sI3493
I39260
sI3494
I9143
sI3495
I1759
sI3496
I48450
sI3498
I198171
sI3499
I12617
sI3500
I25309
sI3501
NsI3502
NsI3503
I7922
sI3505
I20712
sI3506
I8685
sI3507
I51056
sI3509
I8764
sI3510
I719
sI3511
I3265
sI3512
NsI3513
I20712
sI3515
I52088
sI3516
NsI3517
I3663
sI3520
I5410
sI3523
I19165
sI3525
I7018
sI3527
I41364
sI3528
I11815
sI3529
I48424
sI3531
NsI3537
I6805
sI3538
I21175
sI3539
I3323
sI3540
I7922
sI3542
I5692
sI3543
I50047
sI3544
I52233
sI3545
I8613
sI3546
I35540
sI3547
I16019
sI3549
I3265
sI3550
I28009
sI3552
I22927
sI3553
I12714
sI3554
I20773
sI3555
I9143
sI3557
I35189
sI3558
NsI3559
I3320
sI3561
I786
sI3564
I43142
sI3565
NsI3566
I812
sI3569
I1798
sI3570
I56329
sI3573
I39179
sI3574
I7922
sI3575
I21175
sI3577
I35540
sI3579
I7922
sI3585
I11139
sI3588
I7782
sI3590
I20712
sI3594
I1136
sI3596
I59861
sI3597
I20773
sI3600
I6079
sI3601
I12578
sI3602
NsI3603
I5645
sI3606
I29562
sI3607
I12849
sI3611
I47764
sI3616
I10131
sI3618
NsI3619
I133124
sI3620
I6128
sI3621
I52130
sI3622
I50343
sI3624
I5607
sI3625
I12849
sI3626
I45043
sI3627
NsI3628
I56534
sI3632
I50343
sI3633
I50448
sI3635
I20764
sI3637
I20764
sI3638
I59472
sI3639
I199599
sI3640
I546
sI3641
I133124
sI3644
I7922
sI3645
I7065
sI3646
I3582
sI3647
I9143
sI3649
I7922
sI3650
I7922
sI3651
I46375
sI3656
I7922
sI3657
I29125
sI3658
I7922
sI3659
I15815
sI3661
I786
sI3663
I7922
sI3665
I11351
sI3666
I7922
sI3667
I20764
sI3668
I6830
sI3669
I7018
sI3670
I7065
sI3671
I209
sI3672
I25532
sI3673
I7922
sI3675
I2856
sI3676
I42409
sI3678
I7922
sI3680
I680
sI3681
I22773
sI3682
I17934
sI3683
I701
sI3685
I7922
sI3686
I701
sI3687
I2856
sI3690
I11426
sI3694
I41745
sI3695
I15935
sI3696
I41554
sI3698
I19517
sI3699
I5410
sI3702
I24582
sI3703
I4771
sI3704
I852
sI3706
I12578
sI3709
I2527
sI3710
NsI3712
I3352
sI3715
I701
sI3716
I31334
sI3717
I31514
sI3719
I200953
sI3721
I59498
sI3723
I31514
sI3724
NsI3725
I39526
sI3726
I12430
sI3727
I17506
sI3729
NsI3730
I4713
sI3731
I8615
sI3732
I12578
sI3735
I44923
sI3737
I701
sI3739
I2500
sI3740
I7922
sI3741
I4802
sI3742
I1955
sI3743
I55380
sI3744
NsI3747
I1955
sI3749
I8708
sI3750
NsI3753
I7922
sI3755
I3352
sI3756
I701
sI3757
I12714
sI3759
NsI3760
I7018
sI3762
I701
sI3763
I8402
sI3766
I12578
sI3767
I701
sI3768
I15582
sI3769
NsI3770
I7922
sI3771
I56910
sI3772
I2500
sI3775
I21219
sI3777
I21211
sI3779
NsI3780
I25513
sI3781
I4804
sI3782
I25159
sI3784
NsI3785
I3352
sI3786
I1680
sI3789
I8301
sI3790
I5645
sI3791
I47395
sI3796
NsI3798
I42610
sI3800
NsI3801
I12714
sI3803
NsI3804
I28738
sI3806
I15582
sI3807
I49452
sI3808
NsI3809
I59406
sI3811
I42610
sI3812
I31514
sI3813
NsI3814
NsI3819
I42772
sI3820
I8334
sI3821
I42610
sI3823
NsI3825
I8402
sI3827
I8615
sI3828
I49342
sI3831
I6730
sI3832
I15582
sI3834
I29470
sI3836
NsI3837
I25515
sI3838
I31514
sI3841
I49063
sI3842
I31514
sI3843
NsI3844
NsI3845
I8334
sI3848
I50289
sI3849
NsI3851
I12714
sI3852
I8334
sI3853
I60986
sI3854
I25513
sI3856
I12389
sI3858
NsI3860
NsI3861
I42610
sI3862
I16086
sI3866
I8427
sI3868
I25513
sI3869
I8402
sI3870
NsI3871
I42610
sI3872
I42610
sI3873
NsI3875
I42610
sI3877
NsI3879
I202164
sI3880
I12714
sI3881
I42610
sI3882
NsI3883
NsI3884
I39792
sI3885
I39153
sI3887
I21353
sI3888
I12714
sI3889
I42610
sI3891
I42610
sI3892
I50473
sI3893
NsI3894
I42610
sI3895
I42610
sI3896
I35539
sI3898
I34123
sI3899
NsI3900
NsI3903
I6849
sI3904
I41599
sI3906
I3320
sI3907
I13249
sI3910
I25408
sI3915
I20001
sI3916
I20712
sI3918
I2119
sI3921
NsI3923
NsI3924
I224
sI3926
NsI3929
NsI3931
I1267
sI3932
I13476
sI3933
I35244
sI3934
I42610
sI3935
I39608
sI3937
I57692
sI3938
NsI3941
NsI3942
I6830
sI3944
I41096
sI3945
I42610
sI3946
I49120
sI3947
I4
sI3948
I4739
sI3949
NsI3950
I16302
sI3951
I2856
sI3953
I44604
sI3954
NsI3955
I44775
sI3956
I20910
sI3957
NsI3958
I28890
sI3959
I41560
sI3960
I47270
sI3961
I31334
sI3962
I6830
sI3963
I25229
sI3964
I7922
sI3966
I42310
sI3967
I9143
sI3968
I33885
sI3969
I6697
sI3971
I6327
sI3972
I29439
sI3974
I25472
sI3975
I5432
sI3977
I13188
sI3978
NsI3980
I49763
sI3981
I31416
sI3982
I197480
sI3983
NsI3984
I6830
sI3985
I8551
sI3986
I50685
sI3988
I198847
sI3992
I15895
sI3997
I25019
sI3999
I5089
sI4000
I12389
sI4001
NsI4003
I197624
sI4005
I31519
sI4007
NsI4008
I31334
sI4012
I15895
sI4013
I25098
sI4014
I197573
sI4015
I29014
sI4016
I35734
sI4017
NsI4018
I5692
sI4019
I6461
sI4020
NsI4022
I12322
sI4027
NsI4032
NsI4034
NsI4036
I34056
sI4038
I31272
sI4040
I5089
sI4041
I23889
sI4042
I39927
sI4045
I12322
sI4046
I12872
sI4048
I766
sI4049
I13121
sI4052
I25596
sI4053
I15488
sI4054
I3320
sI4058
NsI4060
I6830
sI4061
I37197
sI4062
I2852
sI4063
I42102
sI4065
I8422
sI4066
I49689
sI4068
I15488
sI4069
I7029
sI4070
I32653
sI4072
I3320
sI4074
NsI4075
I36937
sI4076
I12322
sI4077
I33762
sI4078
I37061
sI4080
NsI4082
I6703
sI4084
I28683
sI4086
I29124
sI4087
NsI4088
I327813
sI4089
I37043
sI4095
NsI4096
I37197
sI4097
NsI4098
NsI4099
NsI4100
I15895
sI4102
I5607
sI4104
I12741
sI4105
I5617
sI4106
I25003
sI4107
I12874
sI4108
I15557
sI4109
I44764
sI4110
I20773
sI4111
I7922
sI4113
I6057
sI4114
I49242
sI4117
I3320
sI4118
I31246
sI4119
NsI4123
I43966
sI4124
I9506
sI4127
I49567
sI4128
I15945
sI4130
NsI4131
NsI4132
I55430
sI4133
I15895
sI4134
NsI4135
I3209
sI4137
I3265
sI4138
I16178
sI4139
I29314
sI4140
I9353
sI4143
I12338
sI4145
I2856
sI4146
I20773
sI4147
I20773
sI4148
I7922
sI4149
I1547
sI4150
I31334
sI4151
I8256
sI4152
NsI4153
I37611
sI4155
I20115
sI4156
I8422
sI4157
I15557
sI4158
I13032
sI4161
I3303
sI4164
I24971
sI4165
I12757
sI4166
I50581
sI4168
NsI4170
I3265
sI4173
I39065
sI4174
I6830
sI4175
I34421
sI4176
I29553
sI4177
I60267
sI4179
I57763
sI4182
I3320
sI4184
I25513
sI4186
I3265
sI4187
I15377
sI4189
I42763
sI4190
I3265
sI4191
I6703
sI4192
I6830
sI4194
I2860
sI4195
I15377
sI4196
I21219
sI4198
I5617
sI4200
NsI4201
I3265
sI4202
NsI4203
I44637
sI4204
I12714
sI4205
I41668
sI4207
I5617
sI4208
I25229
sI4212
I8422
sI4214
I49463
sI4215
I6805
sI4216
I25133
sI4217
I3320
sI4218
I200533
sI4219
I2860
sI4222
I29596
sI4223
I3320
sI4224
I13030
sI4225
I51744
sI4228
I3269
sI4229
I48239
sI4230
NsI4232
I35125
sI4233
I34123
sI4238
I24776
sI4240
I8422
sI4242
I6830
sI4243
I3320
sI4244
NsI4246
I3320
sI4247
I24875
sI4248
NsI4250
I3320
sI4252
I25482
sI4257
I20845
sI4258
I3320
sI4259
I3320
sI4260
I3320
sI4261
I39435
sI4262
I39608
sI4264
I12322
sI4266
I12322
sI4267
I196819
sI4268
I198423
sI4269
I41833
sI4270
I680
sI4273
I25596
sI4274
I37074
sI4275
I209
sI4279
I7922
sI4280
I16342
sI4283
I25596
sI4284
I8675
sI4285
I29562
sI4286
I3209
sI4287
I29562
sI4288
I35714
sI4289
I9105
sI4290
I8374
sI4291
NsI4292
I198971
sI4293
I9143
sI4295
I3188
sI4297
I6830
sI4299
I12322
sI4304
I7922
sI4305
NsI4306
I39931
sI4307
NsI4308
I8402
sI4312
NsI4320
I6830
sI4321
I1136
sI4324
I9198
sI4325
I11232
sI4328
I29562
sI4329
I25229
sI4330
I8437
sI4332
I3320
sI4333
I25220
sI4334
I11232
sI4335
I6830
sI4336
I6849
sI4341
I8767
sI4343
NsI4344
I3320
sI4345
I8391
sI4346
I263779
sI4347
I680
sI4351
I6805
sI4352
I23242
sI4357
I9143
sI4358
I31200
sI4360
I41557
sI4362
I3320
sI4364
I13039
sI4365
I8445
sI4367
I41887
sI4368
I26546
sI4369
I6735
sI4370
NsI4372
I8402
sI4376
I20712
sI4378
I28792
sI4380
I15372
sI4381
I31394
sI4383
I8402
sI4386
I31272
sI4389
I13188
sI4390
I17506
sI4391
I680
sI4392
NsI4393
I8427
sI4400
I6805
sI4401
I35244
sI4404
I24582
sI4405
I701
sI4407
I6830
sI4410
I44030
sI4411
NsI4412
I12271
sI4413
I60294
sI4414
I6830
sI4415
I3249
sI4417
I33363
sI4419
I35244
sI4420
I6830
sI4422
I9105
sI4423
I13030
sI4424
NsI4428
I42038
sI4429
I55430
sI4430
I56300
sI4431
I60294
sI4434
I6830
sI4435
I29562
sI4436
NsI4437
NsI4440
I5467
sI4441
NsI4443
I24090
sI4444
I31148
sI4445
NsI4446
I8767
sI4447
I719
sI4448
I35244
sI4449
I9556
sI4452
I9051
sI4453
I31200
sI4454
I3320
sI4455
I49120
sI4457
I43656
sI4460
I29314
sI4461
I3320
sI4462
NsI4463
NsI4464
I133887
sI4465
I8997
sI4466
I31036
sI4467
NsI4468
I8788
sI4471
I41557
sI4472
I56433
sI4473
I6697
sI4475
I9146
sI4476
I3209
sI4477
I25229
sI4479
NsI4480
I12741
sI4481
I198864
sI4482
I3320
sI4484
I12876
sI4489
NsI4490
I12998
sI4491
I8447
sI4492
I49962
sI4496
I24955
sI4497
I16342
sI4498
I50633
sI4501
I6830
sI4502
I31148
sI4503
I1136
sI4504
NsI4506
I21219
sI4508
I5089
sI4509
I41695
sI4511
I2818
sI4513
I6830
sI4515
NsI4518
I2018
sI4519
I10474
sI4522
I31463
sI4523
NsI4525
I9031
sI4526
I8422
sI4528
I43205
sI4531
I3320
sI4532
I2818
sI4533
I3320
sI4534
I2586
sI4535
NsI4537
I15516
sI4539
I9070
sI4540
I50056
sI4543
I20845
sI4544
I9143
sI4547
I34187
sI4549
I701
sI4551
I20115
sI4553
I812
sI4554
I6703
sI4555
I8997
sI4556
I35141
sI4563
I20676
sI4564
I43561
sI4566
I28854
sI4568
I6327
sI4569
I6830
sI4570
I29562
sI4572
I3320
sI4573
I16333
sI4575
I20676
sI4576
I790
sI4578
I6830
sI4580
I33811
sI4584
I43132
sI4586
NsI4588
I25255
sI4590
I12466
sI4591
I3320
sI4593
I8422
sI4594
I49337
sI4597
I8632
sI4598
I3320
sI4599
I1403
sI4600
I3265
sI4601
I8591
sI4602
I5650
sI4605
I3265
sI4609
I6830
sI4611
I9036
sI4612
I61275
sI4613
I56837
sI4614
NsI4615
I35258
sI4616
I6805
sI4617
I39602
sI4619
I42163
sI4621
I3215
sI4622
I5432
sI4628
I8788
sI4629
I62383
sI4630
I25518
sI4631
I197426
sI4632
I44955
sI4633
I42652
sI4635
I6128
sI4636
I3265
sI4638
I35665
sI4639
I1124
sI4640
I6871
sI4646
I34177
sI4647
I3320
sI4649
I44156
sI4651
I50901
sI4652
NsI4653
I3320
sI4655
I197750
sI4656
NsI4658
I13127
sI4659
I51191
sI4660
I34764
sI4664
NsI4666
NsI4669
I25596
sI4672
I7303
sI4673
I34516
sI4680
I25596
sI4683
I12767
sI4686
I34867
sI4692
NsI4693
NsI4697
I198385
sI4699
I8928
sI4701
NsI4705
NsI4706
I14051
sI4708
I31655
sI4709
I31334
sI4712
I8400
sI4715
NsI4717
I28788
sI4718
I3320
sI4719
I13127
sI4720
I9988
sI4721
I132696
sI4722
I2497
sI4723
I199490
sI4724
I13127
sI4726
I57214
sI4728
NsI4732
NsI4734
I52344
sI4735
I199600
sI4736
NsI4738
NsI4740
I3320
sI4741
I198570
sI4745
I9143
sI4746
I12741
sI4747
NsI4750
I1136
sI4751
I49232
sI4752
I3292
sI4753
I42893
sI4754
I17506
sI4756
I34574
sI4757
I9988
sI4758
NsI4762
I31371
sI4763
I49808
sI4765
NsI4767
NsI4772
I21502
sI4774
I9735
sI4775
NsI4776
I58587
sI4777
I35574
sI4778
I4771
sI4779
I8447
sI4780
I51319
sI4783
I3265
sI4784
I25486
sI4788
I9785
sI4789
NsI4790
I47694
sI4794
I6703
sI4796
I198672
sI4798
I13101
sI4799
I16202
sI4800
I10091
sI4803
NsI4806
I8228
sI4809
I6886
sI4813
I2119
sI4814
I262199
sI4821
I31148
sI4822
I50648
sI4823
I1136
sI4824
I47800
sI4825
I7922
sI4826
I29834
sI4828
I39069
sI4829
I701
sI4830
NsI4831
I21219
sI4832
I21217
sI4833
I61354
sI4837
I15895
sI4838
I6805
sI4839
NsI4842
I2119
sI4843
I5089
sI4844
I31510
sI4846
I49583
sI4848
I62360
sI4849
I7922
sI4850
I21239
sI4851
I11404
sI4854
I8402
sI4857
NsI4858
I3320
sI4860
I3265
sI4861
I15895
sI4862
I25408
sI4865
NsI4868
NsI4870
I16724
sI4871
I5588
sI4872
NsI4873
I9067
sI4875
I3257
sI4876
I3320
sI4877
I28685
sI4879
I3320
sI4881
I6866
sI4882
I59494
sI4883
NsI4884
I48957
sI4886
I15982
sI4889
I12714
sI4892
NsI4893
I51018
sI4894
I7922
sI4895
I199220
sI4896
I8402
sI4897
I42668
sI4903
I34687
sI4905
NsI4910
I8726
sI4911
I197021
sI4912
I3597
sI4913
I9829
sI4914
I3292
sI4916
I31246
sI4921
I20845
sI4922
I22927
sI4925
I2852
sI4926
NsI4927
NsI4928
NsI4929
I41765
sI4930
I7018
sI4931
I13287
sI4935
NsI4937
I63969
sI4938
I7922
sI4939
I22927
sI4940
NsI4941
I38158
sI4943
I6830
sI4944
NsI4945
I11426
sI4951
NsI4952
I3244
sI4956
I47420
sI4958
I3927
sI4959
I4128
sI4961
I5089
sI4963
I29076
sI4964
NsI4965
I59990
sI4969
I5650
sI4970
I7922
sI4972
NsI4978
I3292
sI4981
I3130
sI4982
I5432
sI4984
NsI4985
I4787
sI4986
NsI4988
I44056
sI4990
I12847
sI4991
I197317
sI5997
NsI5998
NsI6001
I3333
sI6002
I39029
sI6003
I29432
sI6004
I2486
sI6005
I34288
sI6006
I25192
sI6007
I2128
sI6008
I2607
sI6009
I1853
sI6010
I11488
sI6011
I12779
sI6012
I3333
sI6014
I12731
sI6015
I559
sI6016
I2602
sI6017
I25291
sI6019
I3333
sI6020
I5539
sI6021
I5580
sI6022
I31019
sI6023
I5580
sI6024
I5580
sI6025
I8839
sI6026
I5408
sI6029
I35625
sI6030
I13004
sI6031
I1101
sI6032
I1850
sI6033
I2500
sI6034
I9112
sI6035
I553
sI6036
I16086
sI6037
I59521
sI6038
I199422
sI6039
I12303
sI6040
I1140
sI6041
I25509
sI6042
I1120
sI6043
I513
sI6044
I38796
sI6045
I1280
sI6046
I47764
sI6047
I39122
sI6048
I13041
sI6049
I8674
sI6050
I1213
sI6051
I2609
sI6052
I13101
sI6053
I10474
sI6054
I28000
sI6055
I4608
sI6056
I39392
sI6057
I196670
sI6058
I2611
sI6059
I37708
sI6060
I8763
sI6061
I2914
sI6062
I2914
sI6063
I50168
sI6064
I15835
sI6065
I2914
sI6066
I2914
sI6067
I7366
sI6068
I2852
sI6069
I59469
sI6070
I60157
sI6071
I2611
sI6072
I7922
sI6073
I39702
sI6074
I14061
sI6075
I202109
sI6076
I681
sI6077
I133165
sI6078
I202040
sI6079
I3265
sI6080
I7922
sI6081
I33988
sI6082
I198260
sI6084
I201702
sI6085
I198644
sI6086
I21282
sI6087
I43996
sI6088
I43996
sI6089
I38229
sI6090
I8781
sI6091
I5459
sI6092
I14907
sI6093
I14907
sI6094
I16004
sI6095
I14907
sI6096
I45494
sI6097
I32244
sI6098
I8676
sI6099
I22548
sI6100
I10745
sI6101
I53824
sI6102
I49515
sI6103
I39839
sI6104
I29405
sI6105
I48918
sI6106
I29632
sI6107
I33480
sI6108
I48918
sI6109
I197495
sI6110
I197451
sI6111
I198068
sI6112
I197216
sI6113
I1133
sI6114
I45170
sI6115
I20612
sI6116
I30798
sI6117
I20647
sI6118
I57734
sI6119
I13303
sI6120
I42473
sI6121
I9790
sI6122
I22300
sI6123
I8767
sI6124
I766
sI6125
I40528
sI6126
I51430
sI6127
I6124
sI6128
I7590
sI6129
I34612
sI6130
I16876
sI6131
I5404
sI6132
I9821
sI6133
I201958
sI6134
I49024
sI6135
I201709
sI6136
I7642
sI6137
I3333
sI6138
I24122
sI6139
I18106
sI6140
I393246
sI6141
I43996
sI6142
I63403
sI6143
I852
sI6144
I43996
sI6145
I43996
sI6146
I60781
sI6147
I33280
sI6148
I852
sI6149
I43996
sI6150
I6881
sI6151
I201682
sI6152
I28753
sI6153
I45204
sI6154
I39107
sI6155
I30633
sI6156
I7203
sI6157
I59253
sI6158
I13901
sI6159
I56357
sI6160
I27678
sI6161
I27843
sI6162
I56055
sI6163
I47872
sI6164
I198228
sI6165
I8426
sI6166
I680
sI6167
I263779
sI6168
I43350
sI6169
I10208
sI6170
I4270
sI6171
I60574
sI6172
I196745
sI6173
I30971
sI6174
I6908
sI6175
I1103
sI6176
I37668
sI6177
I43317
sI6178
I12414
sI6179
I37474
sI6180
I42699
sI6181
I15389
sI6182
I33920
sI6183
I62310
sI6184
I38740
sI6185
I52130
sI6186
I8365
sI6187
I37663
sI6188
I51349
sI6189
I5607
sI6190
I5607
sI6191
I133752
sI6193
I24971
sI6194
I1200
sI6195
I25376
sI6196
I4508
sI6197
I2128
sI6198
I52048
sI6199
I51468
sI6200
I2128
sI6201
I3851
sI6202
I680
sI6203
I13238
sI6204
I35733
sI6205
I51468
sI6206
I7712
sI6207
I54054
sI6208
I46309
sI6209
I35733
sI6210
I35258
sI6211
I24725
sI10001
I3265
sI10003
I3265
sI10004
I3333
sI10005
I3265
sI10006
I6871
sI10007
I7922
sI10008
I3851
sI10009
I7922
sI10013
I3265
sI10015
I3265
sI10016
I9143
sI10019
NsI10020
I1103
sI10022
I3265
sI10023
I20647
sI10024
I42353
sI10025
I44574
sI10026
I12322
sI10027
I2856
sI10028
I29562
sI10031
I3320
sI10035
I38930
sI10038
I2529
sI10039
I701
sI10040
I13127
sI10042
NsI10043
I9143
sI10045
I2856
sI10047
I29321
sI10048
I2856
sI10051
I12676
sI10052
I13246
sI10053
NsI10056
I20845
sI10058
I50583
sI10059
I20821
sI10061
I12676
sI10064
NsI10065
I5466
sI10067
I15798
sI10068
I34594
sI10069
NsI10070
I12963
sI10072
I6739
sI10074
I24482
sI10077
I9143
sI10080
I4713
sI10082
I9198
sI10084
I47914
sI10086
NsI10087
I196890
sI10089
I5089
sI10092
I35141
sI10093
I20845
sI10094
I57670
sI10095
I18199
sI10096
I15556
sI10099
I7922
sI10100
I15669
sI10101
I9143
sI10102
I33920
sI10105
I3333
sI10108
I13037
sI10109
I42689
sI10113
I5379
sI10117
I39766
sI10118
I6821
sI10119
I41557
sI10120
I5089
sI10122
I35567
sI10124
I5603
sI10125
I4323
sI10126
I43612
sI10130
NsI10131
I35573
sI10132
I44566
sI10134
I2529
sI10138
I7922
sI10139
I60036
sI10141
I3303
sI10142
I5089
sI10145
I8661
sI10146
I7922
sI10149
NsI10150
I6830
sI10151
I2856
sI10152
I8661
sI10154
I199128
sI10159
I3245
sI10161
I43494
sI10162
I41557
sI10165
I7922
sI10166
I5379
sI10168
NsI10176
I21246
sI10177
I766
sI10179
I21503
sI10180
I12871
sI10181
I35540
sI10182
NsI10183
NsI10184
I21453
sI10185
I20001
sI10187
NsI10188
I8422
sI10189
I20712
sI10190
NsI10194
I7922
sI10195
I6830
sI10200
I4804
sI10202
I6057
sI10203
I24691
sI10204
I7922
sI10208
I3265
sI10209
I16086
sI10210
I52063
sI10212
I28683
sI10213
I34594
sI10214
I42652
sI10215
I202164
sI10218
I48243
sI10220
NsI10221
I8997
sI10222
I6830
sI10227
I6848
sI10228
I13118
sI10231
I39309
sI10233
I198508
sI10234
I44050
sI10235
NsI10236
NsI10237
I3352
sI10238
I31200
sI10239
I42355
sI10240
I4760
sI10241
I29442
sI10242
NsI10243
I37084
sI10246
I39608
sI10247
I41440
sI10248
I48659
sI10249
I31094
sI10250
NsI10252
I50288
sI10253
NsI10255
I15516
sI10256
I15826
sI10257
NsI10258
I41843
sI10259
NsI10261
NsI10262
I28840
sI10264
NsI10265
I42116
sI10266
I7545
sI10268
I3352
sI10269
I132125
sI10273
I9143
sI10274
I52207
sI10276
I201226
sI10278
I49009
sI10279
NsI10281
I31334
sI10282
I49009
sI10283
I56835
sI10284
I7922
sI10285
NsI10286
I7922
sI10287
I33991
sI10291
I9143
sI10293
I8489
sI10296
I51214
sI10297
NsI10298
NsI10300
NsI10301
I209
sI10302
NsI10304
NsI10305
I30640
sI10306
NsI10307
NsI10308
NsI10309
NsI10311
I32440
sI10312
I11426
sI10314
I5769
sI10316
NsI10317
I2914
sI10319
NsI10321
NsI10322
I7922
sI10323
NsI10325
NsI10326
NsI10327
NsI10330
I13037
sI10331
I7922
sI10332
NsI10333
I7922
sI10334
I209
sI10335
NsI10336
I7922
sI10337
I7922
sI10338
I12083
sI10339
I7922
sI10340
NsI10341
NsI10342
I10838
sI10343
I20115
sI10344
I109
sI10345
NsI10346
NsI10347
NsI10348
NsI10349
I19182
sI10350
I7922
sI10351
NsI10352
NsI10353
NsI10354
NsI10355
I7922
sI10356
I7922
sI10357
I7922
sI10358
NsI10359
NsI10361
NsI10362
I237
sI10363
NsI10364
NsI10366
I23393
sI10367
I3112
sI10368
NsI10369
I20355
sI10370
NsI10371
I701
sI10372
NsI10374
NsI10375
NsI10376
NsI10377
I11351
sI10378
I701
sI10379
NsI10380
NsI10381
I7922
sI10382
I32440
sI10385
NsI10386
I7922
sI10387
NsI10389
NsI10391
NsI10392
NsI10393
NsI10395
NsI10397
I5650
sI10399
I701
sI10400
I7922
sI10401
NsI10402
I701
sI10403
I5739
sI10404
NsI10405
I22773
sI10406
I4181
sI10407
NsI10408
NsI10409
NsI10413
I4181
sI10414
NsI10415
I12276
sI10416
NsI10417
NsI10418
I3599
sI10419
I11404
sI10422
I7018
sI10423
I701
sI10424
I7018
sI10425
NsI10427
I701
sI10429
NsI10430
NsI10431
NsI10433
I20712
sI10434
NsI10435
NsI10436
NsI10438
I87
sI10439
NsI10440
I87
sI10441
I852
sI10442
NsI10444
I33361
sI10445
I4922
sI10446
NsI10447
NsI10449
NsI10450
I6342
sI10451
NsI10453
NsI10454
NsI10455
NsI10456
I22773
sI10457
I27647
sI10458
I7922
sI10459
I7922
sI10460
I29286
sI10461
NsI10462
I701
sI10463
NsI10465
I11427
sI10468
NsI10470
NsI10472
NsI10473
I7922
sI10474
I7018
sI10475
NsI10476
NsI10477
I46609
sI10478
I7018
sI10481
I2856
sI10482
I7922
sI10483
NsI10484
I7922
sI10486
I7922
sI10487
I2914
sI10488
I174
sI10489
NsI10490
I7922
sI10491
I7922
sI10492
NsI10493
I5009
sI10494
NsI10495
I32440
sI10496
NsI10497
I47956
sI10498
I11351
sI10499
NsI10500
NsI10501
I1273
sI10502
I1273
sI10506
I1273
sI10507
I1273
sI10509
I1273
sI10510
I1273
sI10514
I25310
sI10515
I7922
sI10517
I7922
sI10518
I7922
sI10522
I31655
sI10535
I12353
sI10540
I7922
sI10541
NsI10542
I7018
sI10543
I7922
sI10544
I7922
sI10545
I7922
sI10551
I7922
sI10552
NsI10553
I7922
sI10554
I7922
sI10555
I20115
sI10556
I7922
sI10559
I7922
sI10560
I7922
sI10561
I7922
sI10562
I7922
sI10564
I22773
sI10565
I7922
sI10566
I1273
sI10568
I7922
sI10576
I7922
sI10577
I7922
sI10578
I7018
sI10582
NsI10583
I7922
sI10584
I7922
sI10585
I7922
sI10586
I7922
sI10587
I7922
sI10595
I7922
sI10596
NsI10597
I7922
sI10598
I7922
sI10599
I7922
sI10600
I29644
sI10601
I13672
sI10602
I33363
sI10604
I35592
sI10605
I3303
sI10609
I44395
sI10610
I39449
sI10611
I6830
sI10612
I39093
sI10615
I6830
sI10620
I5089
sI10626
I7922
sI10627
NsI10632
I5089
sI10635
I48961
sI10637
I7922
sI10638
I1741
sI10639
I15806
sI10640
I36351
sI10644
I1741
sI10645
I12322
sI10646
I790
sI10647
I25248
sI10650
I4768
sI10653
I49962
sI10654
I8881
sI10656
I2110
sI10657
I36351
sI10658
I4768
sI10659
I43733
sI10660
I15533
sI10661
I22047
sI10662
I35733
sI10663
I32329
sI10664
I8339
sI10665
NsI10667
I39029
sI10668
I17197
sI10673
I12322
sI10674
I36351
sI10675
I36351
sI10676
I36351
sI10677
I36351
sI10678
I3209
sI10679
I5413
sI10688
I1741
sI10690
NsI10692
I7922
sI10693
I7922
sI10694
I701
sI10696
I1741
sI10697
I7018
sI10704
I33363
sI10705
I4750
sI10712
I17823
sI10713
NsI10714
I11351
sI10717
I49800
sI10718
I49800
sI10723
I44395
sI10725
I43192
sI10727
I701
sI10729
I44395
sI10733
I6848
sI10734
I29124
sI10735
I8676
sI10736
I44395
sI10738
I3320
sI10740
I2110
sI10743
I7922
sI10744
I6830
sI10747
I7922
sI10748
I3301
sI10749
I6830
sI10750
I8708
sI10751
I7922
sI10755
I3320
sI10756
I13030
sI10757
I13030
sI10762
NsI10767
I3303
sI10770
I7018
sI10772
I174
sI10774
I790
sI10775
I6830
sI10777
I33980
sI10782
I3265
sI10783
I3301
sI10786
I16019
sI10790
I701
sI10791
I5645
sI10795
I1136
sI10797
I39605
sI10798
I50469
sI10806
I16276
sI10807
I45494
sI10811
I3320
sI10813
I15502
sI10814
I237
sI10816
I12322
sI10819
I6830
sI10821
I9198
sI10824
I3320
sI10826
I3320
sI10833
NsI10834
I198247
sI10836
I13287
sI10841
I8661
sI10843
I29032
sI10847
I34245
sI10849
I8661
sI10850
I9031
sI10854
NsI10855
I36997
sI10858
I6830
sI10859
I8661
sI10860
I6848
sI10861
I6821
sI10864
I6805
sI10865
I41601
sI10866
I27699
sI10868
I29124
sI10869
I41440
sI10870
NsI10872
I29124
sI10881
I62059
sI10884
I7922
sI10885
I31334
sI10886
I5391
sI10890
I6830
sI10891
I3308
sI10893
I1140
sI10899
NsI10901
NsI10904
I41733
sI10905
I6373
sI10906
NsI10907
I198653
sI10909
NsI10910
I3243
sI10913
NsI10915
I35368
sI10916
I13118
sI10920
I3320
sI10921
I56656
sI10923
I12322
sI10924
I197075
sI10925
NsI10926
NsI10928
I61174
sI10929
I4771
sI10932
I9198
sI10933
I4764
sI10934
NsI10935
I29512
sI10937
I49889
sI10938
I41164
sI10939
I3352
sI10940
I9105
sI10942
NsI10943
NsI10945
NsI10946
I35699
sI10948
NsI10949
I56550
sI10951
I1136
sI10952
I12322
sI10953
I2856
sI10954
I199289
sI10955
I3292
sI10958
NsI10962
NsI10963
I6503
sI10964
I41391
sI10967
I3741
sI10968
I6866
sI10969
I19108
sI10972
I49125
sI10975
I5394
sI10977
I58587
sI10978
I3320
sI10980
NsI10981
NsI10982
I12322
sI10984
I1103
sI10988
I28685
sI10990
I8997
sI10991
NsI10992
I12714
sI10995
I28788
sI10996
NsI10997
I13127
sI10998
I5432
sI11000
NsI11003
I35067
sI11006
I31252
sI11009
I5645
sI11010
I701
sI11013
I50448
sI11016
I17435
sI11018
I557
sI11020
I41733
sI11021
NsI11022
I12322
sI11031
NsI11035
I9143
sI11036
I2856
sI11037
I47659
sI11038
I35807
sI11040
I56377
sI11043
I41957
sI11044
NsI11046
I57142
sI11048
NsI11049
I25381
sI11050
I41727
sI11053
NsI11054
I35000
sI11055
I31148
sI11056
I12389
sI11059
I3320
sI11060
I49223
sI11063
I48848
sI11065
I42893
sI11066
I29456
sI11068
NsI11069
I3320
sI11070
I34221
sI11071
I15468
sI11072
I28968
sI11074
I44843
sI11075
I3320
sI11077
I34187
sI11078
I9198
sI11079
I34533
sI11080
NsI11081
I47313
sI11084
I199067
sI11088
I6856
sI11089
NsI11090
I7922
sI11091
NsI11092
I25515
sI11095
I51515
sI11097
NsI11098
I12714
sI11100
NsI11101
I58321
sI11102
I6805
sI11103
I34524
sI11104
I198977
sI11105
I35540
sI11106
I31334
sI11108
I3303
sI11110
I1853
sI11113
I11845
sI11114
NsI11116
I15493
sI11117
NsI11118
I12322
sI11119
I679
sI11122
I5410
sI11125
I12991
sI11131
NsI11134
I6830
sI11140
I1853
sI11141
I760
sI11142
NsI11143
I7922
sI11144
NsI11145
I30740
sI11146
NsI11148
I199339
sI11149
I31349
sI11150
I15763
sI11153
I22684
sI11154
NsI11155
I51815
sI11156
I3216
sI11158
I6830
sI11159
I198977
sI11161
NsI11162
I6848
sI11163
I1853
sI11164
I8402
sI11166
I28748
sI11167
NsI11168
I6871
sI11170
I790
sI11171
I7018
sI11172
I23655
sI11173
NsI11174
I5089
sI11176
I8422
sI11179
I5089
sI11180
I52285
sI11181
I20712
sI11182
I37618
sI11183
NsI11185
I680
sI11189
I5432
sI11190
NsI11191
I31143
sI11192
I48524
sI11194
I29562
sI11195
I57231
sI11197
I8632
sI11199
I35244
sI11200
I6848
sI11201
NsI11202
I44776
sI11203
I7018
sI11205
NsI11206
I43341
sI11209
I5645
sI11210
I3209
sI11211
I8426
sI11212
I13009
sI11213
I12767
sI11214
NsI11215
I10745
sI11217
I34177
sI11218
I7514
sI11219
I48112
sI11220
I3265
sI11221
NsI11222
I6848
sI11223
I5089
sI11225
I1205
sI11226
I6720
sI11232
I6830
sI11235
I16906
sI11236
I37281
sI11237
I1853
sI11240
I42685
sI11241
I1205
sI11243
I12322
sI11244
I1113
sI11249
I16032
sI11251
I6057
sI11253
I39057
sI11254
I1853
sI11255
I31662
sI11256
I51090
sI11257
I22047
sI11258
NsI11260
I5466
sI11261
I2500
sI11265
I16010
sI11266
I44869
sI11267
NsI11268
I12322
sI11269
NsI11270
I50542
sI11272
I6848
sI11273
NsI11274
I21127
sI11275
I15765
sI11280
I5089
sI11282
I39608
sI11284
NsI11285
I60955
sI11287
I4685
sI11288
NsI11289
I44869
sI11292
I2518
sI11293
I3292
sI11296
I3209
sI11297
I7514
sI11299
I6830
sI11301
I12418
sI11302
NsI11306
I37057
sI11308
I41691
sI11310
NsI11311
I18106
sI11317
I20845
sI11320
I35815
sI11323
I5432
sI11324
NsI11325
I56969
sI11327
I32653
sI11329
I12389
sI11332
I12768
sI11333
I30844
sI11334
I3320
sI11337
I12389
sI11340
I51943
sI11341
I42610
sI11343
I41691
sI11344
I41704
sI11346
I25229
sI11347
NsI11351
I35000
sI11353
NsI11356
I35807
sI11357
I35540
sI11358
I20845
sI11359
I6830
sI11361
I48670
sI11363
I47377
sI11369
NsI11371
I43205
sI11373
I47377
sI11374
I35807
sI11375
I15994
sI11376
NsI11378
I15542
sI11379
I50581
sI11383
I8346
sI11384
I16246
sI11387
I37098
sI11390
I44484
sI11394
I6830
sI11400
I198249
sI11403
I6848
sI11405
I8190
sI11406
I21183
sI11407
I15895
sI11410
I34093
sI11414
I28886
sI11415
I20845
sI11416
NsI11417
I201763
sI11419
NsI11420
I42541
sI11421
I3209
sI11423
I57571
sI11425
I51944
sI11426
I48679
sI11427
NsI11429
I25513
sI11433
I6830
sI11434
I9031
sI11437
I8439
sI11438
I59676
sI11439
NsI11440
I25365
sI11441
I57422
sI11443
I3216
sI11444
I43668
sI11447
I3221
sI11448
I28917
sI11450
NsI11451
I6830
sI11453
I20764
sI11456
I42610
sI11458
I44068
sI11459
NsI11460
NsI11461
I60382
sI11462
I62251
sI11463
I553
sI11466
NsI11472
I3301
sI11473
I41302
sI11476
I50222
sI11478
NsI11479
I57571
sI11481
I35816
sI11483
I25408
sI11484
I5432
sI11487
I31323
sI11488
NsI11490
I12662
sI11491
I33835
sI11494
I197889
sI11497
I42707
sI11498
NsI11499
I6848
sI11500
I7922
sI11501
I196847
sI11504
I4739
sI11506
I5645
sI11510
I51219
sI11512
NsI11513
I7922
sI11514
NsI11516
I24958
sI11517
I199481
sI11518
I31287
sI11521
I9143
sI11522
I6799
sI11523
I6848
sI11524
I6848
sI11525
I5432
sI11527
NsI11528
I2914
sI11529
I10796
sI11530
I8660
sI11531
I12322
sI11533
I3265
sI11535
I5650
sI11536
I7922
sI11539
I9367
sI11541
I197021
sI11546
I12843
sI11547
I43277
sI11550
I701
sI11551
I786
sI11555
I198325
sI11556
I3215
sI11557
I20574
sI11558
I31169
sI11560
I39216
sI11561
I16234
sI11562
I200163
sI11563
I199588
sI11565
I2110
sI11567
NsI11570
I8522
sI11571
I6848
sI11572
I3265
sI11573
I6848
sI11574
I57507
sI11576
I5432
sI11577
I5432
sI11578
I6848
sI11579
NsI11582
I7922
sI11583
I57084
sI11585
I29518
sI11586
I29056
sI11587
I6848
sI11592
I47116
sI11593
I5483
sI11594
I6849
sI11598
I49835
sI11600
I30892
sI11602
I30892
sI11603
I3301
sI11605
I1764
sI11606
I8226
sI11607
NsI11608
I25596
sI11609
I43022
sI11610
I2856
sI11617
I59689
sI11618
I39605
sI11619
I12826
sI11620
I29119
sI11621
I58308
sI11622
I8359
sI11623
I39863
sI11624
I29003
sI11625
NsI11626
I56433
sI11627
I1742
sI11628
I57350
sI11629
I15683
sI11632
I12322
sI11633
I6848
sI11634
I11071
sI11635
I1241
sI11636
NsI11638
I6848
sI11639
I5432
sI11640
NsI11642
I6830
sI11643
I6830
sI11645
NsI11648
NsI11649
I31012
sI11650
I8926
sI11653
I36372
sI11654
I7922
sI11655
I3209
sI11656
I29562
sI11660
I35612
sI11661
I42610
sI11662
I15943
sI11663
I5432
sI11665
I31510
sI11666
NsI11667
I6848
sI11669
NsI11670
NsI11671
I3265
sI11679
NsI11684
I1653
sI11687
I26504
sI11688
I60409
sI11689
I20115
sI11690
I1101
sI11691
I24390
sI11695
I6830
sI11697
I15275
sI11698
I1103
sI11702
NsI11703
I5432
sI11704
I32440
sI11705
I7922
sI11706
I8560
sI11707
I8560
sI11708
I198068
sI11710
I5432
sI11711
NsI11712
I13121
sI11713
I12871
sI11714
NsI11715
I42610
sI11716
I8402
sI11717
I35833
sI11718
NsI11719
I1739
sI11720
I35540
sI11721
I9031
sI11722
I3215
sI11723
I34362
sI11724
NsI11726
NsI11727
NsI11728
I50710
sI11729
I12322
sI11731
NsI11733
I24904
sI11734
I38719
sI11736
I199291
sI11737
I34362
sI11738
I6848
sI11739
I5435
sI11740
I6830
sI11741
NsI11742
I60036
sI11743
I15517
sI11744
I4768
sI11745
I11071
sI11746
I5483
sI11747
I22342
sI11749
I13041
sI11750
I22773
sI11751
I31357
sI11752
I4768
sI11753
I45164
sI11754
NsI11758
I1759
sI11760
I6057
sI11761
I16086
sI11762
NsI11763
I20634
sI11765
I7922
sI11768
I12322
sI11771
NsI11774
I45637
sI11776
NsI11779
I42313
sI11782
NsI11787
I20115
sI11790
I12322
sI11791
NsI11792
I812
sI11793
NsI11794
I39608
sI11795
I11426
sI11797
I11426
sI11798
NsI11801
I15038
sI11802
I786
sI11803
I199181
sI11804
I32440
sI11807
I43234
sI11808
NsI11809
I16086
sI11810
NsI11811
I3255
sI11812
I7922
sI11813
I8468
sI11815
I3209
sI11816
I6400
sI11818
I13188
sI11819
I3320
sI11820
I21195
sI11824
I6830
sI11825
NsI11826
NsI11827
NsI11828
I12322
sI11829
NsI11830
NsI11831
NsI11832
I24560
sI11833
I5432
sI11835
I5432
sI11839
NsI11841
I3215
sI11842
I7922
sI11843
I24398
sI11844
I12879
sI11845
I201557
sI11849
I9143
sI11851
I199412
sI11852
NsI11854
I3265
sI11857
I7922
sI11861
I34533
sI11862
NsI11863
I31334
sI11864
I40788
sI11870
I9143
sI11873
NsI11874
I15836
sI11876
I577
sI11877
I57329
sI11878
I43289
sI11879
I8518
sI11880
I44084
sI11881
NsI11883
I11232
sI11884
I3292
sI11885
I43925
sI11886
NsI11887
NsI11899
NsI11900
I6848
sI11902
I31133
sI11903
I2119
sI11904
I13009
sI11905
I31334
sI11906
I6739
sI11908
I5413
sI11909
I201701
sI11911
I701
sI11912
NsI11914
I13037
sI11916
I6739
sI11917
I9143
sI11918
I27647
sI11923
I16086
sI11925
I29286
sI11933
I3352
sI11934
NsI11935
I13037
sI11936
I6805
sI11937
I12843
sI11938
I27699
sI11939
I6848
sI11940
I12715
sI11942
I60351
sI11944
I37090
sI11948
I6739
sI11949
NsI11950
I3215
sI11954
NsI11958
I12715
sI11959
I199542
sI11961
I57370
sI11962
I31027
sI11963
I3265
sI11967
I852
sI11968
I719
sI11969
NsI11971
I56329
sI11974
I3320
sI11975
I28717
sI11976
I19108
sI11978
I38457
sI11980
NsI11982
I4685
sI11983
I2856
sI11985
I7922
sI11989
NsI11990
I20880
sI11992
I12714
sI11994
I42322
sI11995
I16814
sI11996
I6128
sI11997
I2856
sI11998
NsI12001
I13156
sI12003
I8402
sI12004
NsI12007
I45050
sI12009
I6848
sI12012
I7922
sI12015
I41090
sI12016
I7922
sI12017
I25229
sI12018
I41090
sI12019
NsI12020
I35540
sI12022
I20860
sI12023
I12353
sI12025
I9105
sI12026
I3320
sI12027
I49855
sI12028
I3320
sI12030
I209
sI12031
I5089
sI12034
I8422
sI12035
I19855
sI12036
I24398
sI12038
I3209
sI12041
I47313
sI12043
NsI12044
NsI12049
I5089
sI12050
I34762
sI12051
NsI12053
I201773
sI12054
NsI12057
NsI12058
NsI12059
I12730
sI12060
I7922
sI12061
I57370
sI12062
NsI12063
I201557
sI12065
I719
sI12066
I12714
sI12070
I7922
sI12071
I6730
sI12074
I41090
sI12075
I53339
sI12077
I12859
sI12078
I25229
sI12081
I39647
sI12082
I41090
sI12084
I6830
sI12085
I197889
sI12086
NsI12087
I25182
sI12089
I43754
sI12092
I3320
sI12093
I16796
sI12095
I23523
sI12096
I3209
sI12099
I12322
sI12100
I22773
sI12101
I21021
sI12103
I5650
sI12105
I22773
sI12106
I14103
sI12107
NsI12108
I7018
sI12109
I855
sI12112
NsI12115
I701
sI12116
I5650
sI12117
I6830
sI12118
I3320
sI12119
I701
sI12120
I137
sI12121
I19108
sI12123
NsI12124
I40788
sI12125
I8220
sI12126
I3292
sI12132
I12586
sI12134
I20001
sI12137
I25513
sI12138
NsI12139
I48642
sI12141
I16342
sI12142
I15557
sI12143
I11426
sI12144
I7922
sI12146
I7018
sI12148
I24122
sI12149
I8445
sI12150
NsI12151
I6848
sI12152
I25255
sI12153
I12715
sI12154
I20001
sI12155
I701
sI12156
I30036
sI12157
NsI12159
I4474
sI12160
I6057
sI12161
I27364
sI12162
I3243
sI12163
I41095
sI12164
NsI12165
I12929
sI12166
I7922
sI12167
I11427
sI12168
I37063
sI12170
I15954
sI12171
I24398
sI12173
I6830
sI12174
I25460
sI12175
I42841
sI12177
I3320
sI12179
I47526
sI12180
I7922
sI12185
I7922
sI12186
NsI12187
I60256
sI12189
I12871
sI12194
NsI12195
I30988
sI12196
I9143
sI12197
I9431
sI12198
NsI12199
I4704
sI12200
I47377
sI12203
I41095
sI12205
I3741
sI12207
I3741
sI12208
I23881
sI12209
I2527
sI12210
I3462
sI12211
I8422
sI12212
NsI12214
I41095
sI12215
I7922
sI12219
I62416
sI12220
I21034
sI12221
NsI12223
I5615
sI12225
I3320
sI12226
I46375
sI12231
NsI12234
I2856
sI12235
I58299
sI12236
I8551
sI12237
I5432
sI12238
I2856
sI12239
I3320
sI12243
I13046
sI12244
I6830
sI12245
NsI12257
I12430
sI12258
I3265
sI12263
I1136
sI12264
I3320
sI12265
I13127
sI12266
I6848
sI12272
NsI12273
NsI12277
I12513
sI12278
NsI12279
I3249
sI12282
I5615
sI12286
I32653
sI12289
I22047
sI12291
I49866
sI12292
I12844
sI12294
I7922
sI12297
I701
sI12298
I3320
sI12299
I7922
sI12300
I18779
sI12302
I7545
sI12303
I5650
sI12306
I6830
sI12307
NsI12308
I198060
sI12309
I48943
sI12310
I29319
sI12311
I1136
sI12312
I28717
sI12313
I35540
sI12314
NsI12315
I6128
sI12316
I3737
sI12317
I5089
sI12318
I20115
sI12319
I34612
sI12320
I22773
sI12321
NsI12325
I3320
sI12326
I4739
sI12328
I12844
sI12329
I35540
sI12330
I20115
sI12331
I7922
sI12332
I3320
sI12333
I2119
sI12334
I11351
sI12335
I198435
sI12336
I3292
sI12338
I198002
sI12341
I9143
sI12343
I6830
sI12344
I30983
sI12349
I13037
sI12350
I8220
sI12356
I786
sI12357
I6876
sI12359
I12513
sI12360
I12322
sI12361
NsI12362
NsI12363
I4739
sI12364
I5089
sI12366
I20952
sI12367
I31170
sI12369
I7057
sI12370
I31012
sI12372
I4739
sI12376
I28908
sI12378
I20712
sI12379
I28878
sI12380
I20115
sI12381
I48517
sI12382
I6848
sI12383
I16395
sI12385
I33763
sI12389
I327750
sI12391
I10474
sI12392
I21502
sI12394
I24757
sI12396
NsI12402
I6621
sI12404
I58620
sI12405
I58511
sI12406
I4739
sI12409
I17551
sI12410
I4739
sI12411
I134220
sI12412
I45957
sI12413
I4826
sI12415
I18210
sI12418
I4739
sI12419
I134220
sI12421
I4739
sI12423
I7545
sI12424
I24105
sI12426
I5650
sI12428
I38195
sI12429
I42590
sI12430
I7545
sI12433
NsI12435
I59441
sI12437
I1221
sI12438
I12322
sI12439
I12322
sI12441
I9464
sI12442
I12519
sI12443
I6079
sI12444
NsI12445
I31012
sI12447
I7018
sI12448
NsI12449
I12322
sI12451
I12414
sI12452
I7922
sI12454
I6830
sI12455
I4760
sI12458
NsI12459
I393713
sI12460
I9186
sI12461
I199283
sI12462
I13046
sI12465
I3741
sI12466
I37611
sI12467
I3741
sI12471
I36907
sI12472
I3215
sI12473
I57356
sI12474
I6799
sI12475
I7029
sI12477
I37550
sI12479
I5089
sI12483
NsI12486
I2856
sI12487
I30988
sI12488
I20712
sI12492
I20500
sI12493
I3265
sI12499
I196921
sI12501
I6830
sI12502
I30036
sI12503
I49800
sI12504
I7922
sI12505
I52720
sI12506
I16668
sI12507
NsI12508
NsI12509
NsI12510
NsI12514
NsI12515
I6461
sI12516
NsI12517
I7922
sI12518
I7922
sI12519
NsI12520
I6079
sI12522
I7018
sI12523
NsI12525
NsI12526
NsI12527
I25309
sI12531
I43554
sI12533
I7922
sI12534
I15683
sI12535
I15497
sI12537
NsI12538
I7922
sI12540
NsI12542
NsI12546
I7922
sI12548
NsI12549
I22773
sI12550
NsI12553
NsI12554
I29442
sI12555
NsI12556
I8359
sI12557
NsI12560
I13188
sI12561
NsI12562
NsI12563
I3737
sI12564
NsI12565
I7922
sI12566
I7922
sI12569
I196705
sI12570
NsI12571
I6789
sI12573
NsI12576
I49029
sI12577
NsI12578
I217
sI12579
I7922
sI12582
I42610
sI12583
I201701
sI12584
I34251
sI12585
NsI12588
I7922
sI12589
I7922
sI12591
I42610
sI12592
I31725
sI12593
I56347
sI12594
I34315
sI12596
I196734
sI12597
I41709
sI12599
I35434
sI12600
I1879
sI12601
I21390
sI12602
I48217
sI12605
I15626
sI12609
I7922
sI12611
I54858
sI12615
I39169
sI12617
I34123
sI12618
I41911
sI12619
I35032
sI12620
I7922
sI12621
I7922
sI12622
I7922
sI12623
NsI12624
NsI12626
I13249
sI12630
I42610
sI12633
I12662
sI12634
I31148
sI12635
I1241
sI12638
I42610
sI12639
I21500
sI12640
I34786
sI12641
I15377
sI12642
I25478
sI12648
I61219
sI12649
I7922
sI12651
I10796
sI12652
I7922
sI12654
I21189
sI12657
I25299
sI12665
NsI12666
I25229
sI12668
I7922
sI12671
I7922
sI12673
I7922
sI12676
NsI12677
I7922
sI12678
NsI12680
I7922
sI12681
I209
sI12683
NsI12685
I7922
sI12686
I7922
sI12687
NsI12688
I7922
sI12689
NsI12691
NsI12692
I10796
sI12693
I20115
sI12694
I54867
sI12695
I701
sI12696
I7922
sI12697
NsI12698
I92
sI12700
NsI12702
NsI12705
NsI12706
I61309
sI12707
I8767
sI12710
I46375
sI12711
I8271
sI12714
NsI12716
I9188
sI12721
I7922
sI12722
I1853
sI12723
I5470
sI12724
I5539
sI12726
I19108
sI12728
I7922
sI12729
I3292
sI12730
I6799
sI12732
I5089
sI12734
I27725
sI12735
I20001
sI12736
I6848
sI12739
I11351
sI12742
NsI12743
I6821
sI12745
NsI12747
I2856
sI12748
I786
sI12750
I28875
sI12751
I1241
sI12753
I3292
sI12754
I23655
sI12755
I5089
sI12757
I2609
sI12759
NsI12760
I35540
sI12762
I1241
sI12763
NsI12765
I28685
sI12766
I7155
sI12768
I5650
sI12771
I28788
sI12772
I199562
sI12773
I1267
sI12775
I2856
sI12778
I12670
sI12780
NsI12782
I4713
sI12783
I10292
sI12784
I34248
sI12785
NsI12786
I38883
sI12787
I13030
sI12788
I7922
sI12790
I2514
sI12791
I2510
sI12792
I6799
sI12793
I24398
sI12794
I44030
sI12796
I6848
sI12800
I12322
sI12801
I25091
sI12802
I701
sI12804
I23243
sI12805
I14080
sI12806
I20057
sI12807
I8632
sI12808
I10881
sI12809
I13319
sI12810
I2497
sI12812
NsI12819
I7418
sI12821
I41272
sI12823
I35236
sI12827
I1241
sI12829
I49594
sI12830
I12552
sI12832
I25229
sI12833
I52467
sI12834
I2119
sI12835
I13303
sI12838
I6799
sI12839
I50392
sI12840
NsI12841
NsI12842
I20115
sI12844
I6830
sI12845
I18822
sI12846
I13110
sI12847
I20712
sI12848
I6535
sI12849
I27686
sI12850
I13110
sI12851
I25229
sI12853
I7922
sI12854
I22047
sI12855
I6730
sI12856
NsI12857
I199664
sI12859
NsI12861
NsI12862
I30783
sI12863
I4181
sI12865
I6848
sI12866
NsI12867
I7106
sI12869
I1241
sI12870
I42189
sI12873
I3216
sI12874
I42189
sI12876
I2119
sI12877
I28681
sI12878
I39116
sI12879
I7922
sI12880
I202214
sI12881
NsI12883
I3265
sI12884
I12479
sI12886
I12479
sI12887
I50543
sI12888
I6730
sI12889
I43975
sI12890
I197467
sI12892
I3215
sI12894
I7545
sI12895
I577
sI12898
I6830
sI12901
I9121
sI12902
I16086
sI12904
I1887
sI12905
I8789
sI12906
NsI12907
NsI12911
I28685
sI12913
I3215
sI12917
I197207
sI12918
I6867
sI12919
I3215
sI12920
I7922
sI12922
I39651
sI12923
I2119
sI12925
I46375
sI12927
I22047
sI12929
I2856
sI12930
I8778
sI12933
I8708
sI12936
NsI12937
I1241
sI12942
I3491
sI12943
I60036
sI12944
I680
sI12946
I29247
sI12955
I4788
sI12956
I10474
sI12959
NsI12967
I4788
sI12968
I3741
sI12970
NsI12972
NsI12974
I204268
sI12975
I327798
sI12976
I6799
sI12977
I34779
sI12980
I6799
sI12982
I37695
sI12983
I199993
sI12984
I7922
sI12985
I4739
sI12988
I3323
sI12990
I1241
sI12992
I5408
sI12993
I202042
sI12996
NsI12997
I6799
sI12998
I13030
sI12999
I20115
sI13001
I51349
sI13002
I3320
sI13003
I26803
sI13004
I26803
sI13005
I6661
sI13006
I6830
sI13008
I2602
sI13009
NsI13010
I5408
sI13011
I4788
sI13014
I31443
sI13015
I4788
sI13018
I5410
sI13021
I4788
sI13026
I4616
sI13028
I61006
sI13029
I4788
sI13031
I12835
sI13032
I44869
sI13033
NsI13034
I35584
sI13035
I16190
sI13037
I6799
sI13039
I15557
sI13040
I8228
sI13045
I9143
sI13049
I3320
sI13050
I6871
sI13051
I4788
sI13053
NsI13054
I51810
sI13055
I51225
sI13056
I32329
sI13057
I8708
sI13060
I8473
sI13061
I9534
sI13062
I13037
sI13064
I44395
sI13066
I6661
sI13070
I7922
sI13071
I31334
sI13072
I2792
sI13073
I6799
sI13074
I6866
sI13077
I13037
sI13079
I31334
sI13080
I13030
sI13081
I2119
sI13082
I3323
sI13083
I12576
sI13085
I20712
sI13086
I680
sI13091
I13037
sI13096
I12541
sI13100
I36914
sI13102
I3770
sI13104
I4771
sI13106
I3320
sI13108
I15290
sI13109
I701
sI13114
I36914
sI13116
I577
sI13118
I25139
sI13120
I7922
sI13121
I15399
sI13122
I376
sI13124
I15695
sI13127
I15695
sI13128
I701
sI13130
I29571
sI13131
I7922
sI13132
I10566
sI13134
I3320
sI13135
I12871
sI13137
I15695
sI13138
I8422
sI13141
I327706
sI13146
I36692
sI13151
I15802
sI13152
I5384
sI13155
I1136
sI13159
I7922
sI13162
I15695
sI13164
I24634
sI13173
I39010
sI13176
I27960
sI13177
I50266
sI13179
I31549
sI13182
I10566
sI13184
I6830
sI13185
I12871
sI13187
I25596
sI13188
I3303
sI13189
NsI13190
I13237
sI13191
I7922
sI13192
I60532
sI13193
I29562
sI13194
I6739
sI13195
I8402
sI13197
NsI13198
I48344
sI13199
I5089
sI13200
I25234
sI13201
I3320
sI13202
I4150
sI13205
I7922
sI13206
I5410
sI13208
NsI13209
I12322
sI13210
I35600
sI13212
I87
sI13213
I7922
sI13214
I12843
sI13215
I34748
sI13216
I8345
sI13218
I36914
sI13219
I2108
sI13220
I5432
sI13221
I22355
sI13222
I22773
sI13226
I22355
sI13227
I2514
sI13229
I4685
sI13230
I12322
sI13231
I36874
sI13233
NsI13236
I37691
sI13237
I6147
sI13239
I37090
sI13242
I6848
sI13244
I577
sI13245
I37090
sI13248
I8890
sI13249
I701
sI13250
NsI13251
I31514
sI13253
I7922
sI13254
NsI13256
I63969
sI13257
I12644
sI13258
I15802
sI13261
I41704
sI13262
I18126
sI13264
I25250
sI13266
I12083
sI13267
I8820
sI13269
I14988
sI13271
I49604
sI13272
NsI13273
I16246
sI13275
I2856
sI13278
I35067
sI13280
I12392
sI13282
I12902
sI13283
I7018
sI13284
I20766
sI13285
I2018
sI13287
NsI13288
I32448
sI13289
I2519
sI13291
I6830
sI13296
NsI13297
I44869
sI13298
I15772
sI13299
I37100
sI13302
I3320
sI13303
I34362
sI13305
I41073
sI13308
I9143
sI13310
NsI13311
I16409
sI13312
I31549
sI13314
I3320
sI13315
I33823
sI13316
I25596
sI13317
I12322
sI13318
I701
sI13319
I3215
sI13321
I44622
sI13322
I15557
sI13325
I6830
sI13326
NsI13327
I13046
sI13328
I7922
sI13329
NsI13330
I10570
sI13331
NsI13334
I22742
sI13335
I5089
sI13336
I39107
sI13337
I3352
sI13338
I2847
sI13339
I6830
sI13340
NsI13343
I3333
sI13347
I224
sI13351
I6799
sI13355
I24827
sI13356
I5769
sI13358
I3265
sI13364
I24257
sI13365
NsI13367
I15994
sI13368
NsI13370
I6830
sI13371
I5432
sI13372
NsI13375
I24685
sI13376
I15895
sI13378
I1241
sI13380
I28878
sI13381
I12715
sI13384
NsI13387
I51896
sI13388
I7679
sI13389
I23655
sI13390
NsI13391
NsI13392
I42355
sI13393
I12322
sI13396
I6128
sI13397
I22773
sI13399
I2119
sI13400
I31334
sI13402
NsI13403
NsI13404
I59105
sI13407
I12322
sI13409
NsI13410
I13188
sI13411
I30889
sI13412
NsI13413
I30889
sI13414
I2856
sI13415
I3320
sI13418
NsI13419
I209
sI13420
I5607
sI13421
I28683
sI13422
I59550
sI13424
NsI13426
I7922
sI13427
I56910
sI13428
I58291
sI13429
I49223
sI13430
I6805
sI13431
I3320
sI13432
I5615
sI13434
I20712
sI13435
I20712
sI13436
I57068
sI13439
I12322
sI13441
I6871
sI13442
I8565
sI13443
I21131
sI13444
I6830
sI13446
NsI13447
NsI13448
I5394
sI13449
I12684
sI13450
I8758
sI13452
I197159
sI13453
I48294
sI13454
I34594
sI13456
I45352
sI13457
I62007
sI13458
I41750
sI13463
NsI13464
NsI13465
I9534
sI13466
I3352
sI13467
I3215
sI13469
I30889
sI13470
I59105
sI13471
I12322
sI13472
NsI13474
NsI13475
I1241
sI13476
I3265
sI13477
I680
sI13481
I20712
sI13482
I13046
sI13484
I2856
sI13488
I8767
sI13489
I29695
sI13490
I48926
sI13491
I59550
sI13492
I8220
sI13493
I16082
sI13494
I31246
sI13495
I39647
sI13496
I3265
sI13497
I15557
sI13498
NsI13499
I10796
sI13503
I15022
sI13506
I36692
sI13509
NsI13510
NsI13512
NsI13513
NsI13514
I36692
sI13515
NsI13516
NsI13517
NsI13518
I36692
sI13519
I30844
sI13520
I36692
sI13521
I36692
sI13522
NsI13523
NsI13526
I36692
sI13528
I30607
sI13529
I45055
sI13530
NsI13531
I36692
sI13532
NsI13533
I61400
sI13535
I264005
sI13536
I36692
sI13538
I9143
sI13539
I2497
sI13540
NsI13541
I39351
sI13542
I1853
sI13545
I31169
sI13546
NsI13547
I7922
sI13548
I3215
sI13549
NsI13551
I30036
sI13557
I34533
sI13558
I24560
sI13559
NsI13561
I7922
sI13562
I1853
sI13563
NsI13565
I30607
sI13566
I36692
sI13567
NsI13573
I201701
sI13580
I2856
sI13583
NsI13585
I36692
sI13586
NsI13588
NsI13589
NsI13590
I15500
sI13591
NsI13592
I719
sI13593
I2108
sI13596
I9008
sI13597
NsI13598
NsI13599
I20712
sI13603
I6830
sI13605
I60444
sI13606
I60362
sI13607
I8462
sI13610
I50919
sI13611
NsI13613
NsI13614
I292
sI13615
I5432
sI13618
I31334
sI13620
NsI13621
NsI13622
NsI13623
I577
sI13627
I200032
sI13630
I6848
sI13631
I21502
sI13633
I6739
sI13634
NsI13635
I44651
sI13636
I42322
sI13639
I7018
sI13640
I56911
sI13641
I7922
sI13642
I56030
sI13643
I8365
sI13644
NsI13646
I60295
sI13647
I29562
sI13649
I9143
sI13651
I7922
sI13652
I5588
sI13654
I7922
sI13656
I12392
sI13659
I3269
sI13660
I200032
sI13662
NsI13663
I14840
sI13665
I6848
sI13666
I7922
sI13667
I701
sI13669
NsI13670
NsI13671
I7922
sI13672
I41843
sI13675
NsI13676
I7922
sI13677
I6830
sI13678
I29119
sI13679
I1103
sI13680
I6848
sI13681
I7922
sI13682
I10796
sI13684
NsI13686
I5089
sI13687
NsI13688
I701
sI13691
I4788
sI13692
I26627
sI13693
I7155
sI13694
I5650
sI13696
I12322
sI13697
I51172
sI13698
NsI13701
NsI13703
I328019
sI13705
I37100
sI13707
I2121
sI13709
I37457
sI13711
I2018
sI13712
I37266
sI13713
I24757
sI13715
I6848
sI13716
I37611
sI13717
I7922
sI13718
I18881
sI13720
I22355
sI13722
NsI13724
I47680
sI13725
I37100
sI13726
I8632
sI13727
I30619
sI13728
NsI13730
I8426
sI13732
I24757
sI13734
I37100
sI13735
I3999
sI13737
I5089
sI13738
I34779
sI13739
NsI13740
I29286
sI13741
I9534
sI13742
I1835
sI13743
I13188
sI13745
I6848
sI13746
I3741
sI13754
I36874
sI13755
I30844
sI13758
I30844
sI13759
I3215
sI13763
I16019
sI13769
I15808
sI13771
I12556
sI13774
I29605
sI13775
I13004
sI13779
I12556
sI13781
I6701
sI13786
I4739
sI13788
I42235
sI13789
I13004
sI13796
I13004
sI13797
I13091
sI13798
I5432
sI13799
I42235
sI13804
I3741
sI13805
I3741
sI13806
I3741
sI13807
I56300
sI13808
I12576
sI13809
I20712
sI13810
I3741
sI13813
NsI13814
NsI13815
I4589
sI13816
I8816
sI13817
I8265
sI13818
I3301
sI13819
I2497
sI13820
I5432
sI13821
I2518
sI13822
I18121
sI13823
I5483
sI13824
I24992
sI13826
I7922
sI13827
NsI13828
NsI13829
NsI13830
I2856
sI13831
I20115
sI13832
I5390
sI13833
I46562
sI13834
I7018
sI13835
I559
sI13837
I3215
sI13838
I701
sI13842
I1712
sI13845
NsI13849
NsI13850
I35540
sI13851
I1136
sI13855
I559
sI13858
I16086
sI13859
I3215
sI13862
I8447
sI13864
I3
sI13867
I31334
sI13870
I15630
sI13873
I15600
sI13875
NsI13876
I39020
sI13878
I3352
sI13880
I49638
sI13881
I3352
sI13882
I198096
sI13885
I37519
sI13886
I23889
sI13887
I36909
sI13888
I15022
sI13890
I3262
sI13892
I12392
sI13893
I2856
sI13896
I766
sI13897
I41733
sI13900
I56478
sI13902
I3269
sI13903
I8997
sI13904
I28753
sI13907
I60288
sI13910
I31200
sI13911
I9008
sI13912
NsI13913
NsI13914
I60924
sI13917
I8997
sI13919
I6830
sI13921
I60252
sI13924
I5410
sI13925
NsI13926
NsI13928
I5432
sI13930
I29425
sI13931
I5617
sI13932
NsI13933
I198668
sI13934
I20769
sI13935
NsI13937
I7922
sI13938
I31549
sI13939
I51862
sI13942
I12083
sI13945
I4713
sI13946
I812
sI13948
I15685
sI13950
I3320
sI13955
I3320
sI13958
I29608
sI13960
I54390
sI13964
I35313
sI13970
NsI13972
I24679
sI13974
I8953
sI13975
I25512
sI13976
I9085
sI13978
I48847
sI13980
I6830
sI13981
I15598
sI13982
I60415
sI13983
NsI13984
I41860
sI13987
I29518
sI13988
I21250
sI13994
I680
sI13996
I42318
sI14004
I3333
sI14007
I49689
sI14011
NsI14012
I21250
sI14013
I3333
sI14014
I3301
sI14015
I21127
sI14016
I5602
sI14018
I16322
sI14023
I39458
sI14025
I3265
sI14028
I3265
sI14035
I12322
sI14037
I3215
sI14038
I13193
sI14039
I3215
sI14040
I3215
sI14042
I55430
sI14043
I35540
sI14044
NsI14048
NsI14049
I12322
sI14050
I60241
sI14051
I5607
sI14052
NsI14054
NsI14058
NsI14061
I5391
sI14062
I20712
sI14064
I10796
sI14066
I5650
sI14067
I9930
sI14069
I18480
sI14070
I20915
sI14075
I9506
sI14076
I18106
sI14077
NsI14078
I7922
sI14079
I31334
sI14080
I2514
sI14083
I199659
sI14086
I60309
sI14087
I28717
sI14090
I20115
sI14092
I11351
sI14093
NsI14095
NsI14096
I131310
sI14098
NsI14099
I7992
sI14100
I15435
sI14102
I10796
sI14103
I15793
sI14104
NsI14107
I20712
sI14110
NsI14111
I47610
sI14113
I60257
sI14114
I13354
sI14115
I55391
sI14118
I9143
sI14119
NsI14122
I13030
sI14123
NsI14129
I6079
sI14130
I41164
sI14132
I11232
sI14134
I3269
sI14136
NsI14139
I3320
sI14140
I62240
sI14149
I3320
sI14151
NsI14152
I41887
sI14154
I29518
sI14156
I6871
sI14160
I6830
sI14164
I7922
sI14166
I7922
sI14167
I6848
sI14169
I54815
sI14171
I56300
sI14172
NsI14174
I15974
sI14175
I24651
sI14178
I58629
sI14182
NsI14183
I18106
sI14184
I18106
sI14185
NsI14187
NsI14188
NsI14194
I15372
sI14197
I8220
sI14198
NsI14199
I2514
sI14200
I18106
sI14201
I31334
sI14202
I4773
sI14203
I7922
sI14204
I8447
sI14205
I5089
sI14206
I6752
sI14209
I31027
sI14213
I39326
sI14214
I16281
sI14215
I56300
sI14216
I3320
sI14218
I5410
sI14220
I9506
sI14224
NsI14226
I20115
sI14227
I7922
sI14229
I3265
sI14230
I56679
sI14231
NsI14232
I3333
sI14233
I7922
sI14234
NsI14236
NsI14237
I701
sI14238
I31655
sI14240
NsI14242
I7922
sI14243
I8767
sI14244
I18494
sI14247
NsI14248
I3320
sI14250
I3320
sI14251
NsI14253
I11351
sI14256
I9143
sI14257
I12496
sI14258
I62874
sI14259
I35549
sI14260
I3209
sI14261
I6830
sI14264
I15426
sI14266
I2856
sI14267
I15802
sI14268
I2497
sI14271
I13037
sI14272
I200964
sI14273
I8462
sI14274
I2856
sI14275
I6871
sI14276
I6871
sI14277
I7922
sI14278
I15994
sI14279
I35612
sI14281
I5089
sI14284
I20001
sI14285
I2856
sI14287
I8285
sI14289
NsI14290
I21219
sI14291
I13124
sI14292
I30848
sI14293
I24921
sI14294
I6830
sI14295
I16117
sI14296
I9070
sI14298
NsI14299
I34934
sI14300
I8047
sI14301
I59891
sI14304
NsI14306
I35158
sI14307
I3292
sI14309
NsI14310
I6407
sI14311
I12322
sI14313
I198541
sI14314
I20910
sI14315
I3320
sI14316
I3741
sI14317
NsI14318
NsI14319
I12578
sI14320
I6830
sI14322
I5645
sI14323
I12594
sI14324
I7922
sI14325
I10474
sI14326
NsI14327
I56300
sI14328
I2856
sI14332
I31334
sI14333
I12414
sI14334
I21193
sI14339
NsI14340
I701
sI14341
I30764
sI14342
I12322
sI14343
I25074
sI14344
I6830
sI14345
NsI14346
I6830
sI14350
I4773
sI14351
I2856
sI14352
I2516
sI14353
I3320
sI14354
I40788
sI14355
I9158
sI14356
NsI14359
I3320
sI14360
I55391
sI14361
I6327
sI14362
I20001
sI14366
I35125
sI14367
I7922
sI14368
I197133
sI14369
I29670
sI14370
I2856
sI14372
I6830
sI14373
I12322
sI14374
NsI14375
I5607
sI14376
I36867
sI14377
I6724
sI14379
I3292
sI14380
I39554
sI14381
I4589
sI14382
NsI14384
I37611
sI14385
I1403
sI14386
NsI14387
I44417
sI14389
I5432
sI14390
I4725
sI14391
I6871
sI14393
I2510
sI14394
I34224
sI14397
I25394
sI14409
I56478
sI14419
I28683
sI14429
NsI14433
NsI14437
I60708
sI14440
I12576
sI14445
I21282
sI14446
I17993
sI14447
I9249
sI14448
NsI14449
I24439
sI14450
I4638
sI14451
I33763
sI14453
I17660
sI14454
I45906
sI14463
I5089
sI14468
I6871
sI14471
I55850
sI14472
NsI14473
I9790
sI14475
I3215
sI14483
NsI14484
I17660
sI14486
NsI14490
I28683
sI14496
NsI14500
I10474
sI14502
I6805
sI14503
I7922
sI14504
I6805
sI14505
I9304
sI14507
I31334
sI14511
I9269
sI14514
NsI14515
I9269
sI14516
I4134
sI14520
I35540
sI14523
NsI14525
I3320
sI14528
I680
sI14529
I3320
sI14533
I57356
sI14536
I1759
sI14537
I10143
sI14543
I5089
sI14544
I13037
sI14546
I22200
sI14548
I786
sI14550
NsI14551
NsI14555
I5089
sI14558
I38315
sI14561
I16391
sI14562
NsI14564
I17470
sI14566
NsI14569
I13037
sI14570
I1759
sI14571
NsI14572
I719
sI14576
I6871
sI14577
I786
sI14578
I8121
sI14579
I2856
sI14583
I7922
sI14584
I4837
sI14585
I12513
sI14586
I60036
sI14587
I16353
sI14589
I2856
sI14590
I7922
sI14591
NsI14596
I31334
sI14597
NsI14599
I31334
sI14600
NsI14602
I3269
sI14604
I4922
sI14606
I7922
sI14607
I199291
sI14608
I20485
sI14611
I5089
sI14612
NsI14613
I2856
sI14614
I680
sI14616
I3265
sI14617
NsI14618
I35244
sI14619
I6830
sI14620
I31334
sI14621
NsI14622
I18106
sI14623
I18106
sI14624
NsI14625
NsI14626
I18106
sI14627
I13037
sI14628
I42560
sI14629
I11478
sI14630
I35540
sI14631
I2856
sI14632
NsI14633
I39522
sI14634
NsI14635
I28573
sI14636
I5607
sI14639
I13037
sI14640
I6830
sI14641
I7018
sI14643
NsI14644
NsI14645
I199291
sI14646
NsI14647
I6848
sI14649
NsI14650
I1653
sI14651
I28792
sI14652
I12322
sI14653
I6830
sI14656
I40995
sI14657
I209
sI14662
I20926
sI14663
I7922
sI14664
NsI14665
NsI14666
NsI14670
I13285
sI14671
I3320
sI14672
I10091
sI14673
I7922
sI14674
I5089
sI14675
I15943
sI14676
I3265
sI14677
I9031
sI14678
I6830
sI14679
NsI14680
I21365
sI14682
I2856
sI14685
I12611
sI14686
I35612
sI14691
NsI14692
NsI14694
I3320
sI14695
I35612
sI14698
I1221
sI14699
I20626
sI14700
I7018
sI14702
NsI14703
NsI14704
NsI14705
I12871
sI14706
I20634
sI14707
I2259
sI14708
NsI14709
I12353
sI14712
I37608
sI14714
NsI14715
NsI14717
NsI14719
I3320
sI14720
I6360
sI14721
NsI14722
NsI14723
I8402
sI14724
I5669
sI14725
I5432
sI14727
I20712
sI14728
I20676
sI14730
I31334
sI14732
NsI14740
I35540
sI14742
I55430
sI14743
I6830
sI14744
I3269
sI14745
I12392
sI14746
I2119
sI14747
I7922
sI14748
I7922
sI14750
I209
sI14751
I3292
sI14752
I3320
sI14755
I34456
sI14756
NsI14761
I2856
sI14762
NsI14765
I25596
sI14767
I36416
sI14768
I12874
sI14769
NsI14772
I56300
sI14774
I8612
sI14775
I5089
sI14776
I56300
sI14777
I7922
sI14778
I2764
sI14779
I19171
sI14781
I7922
sI14783
I22995
sI14784
I6830
sI14785
I6830
sI14787
I174
sI14788
I51782
sI14790
I6876
sI14792
I25579
sI14794
I11426
sI14796
I7922
sI14797
I58587
sI14798
NsI14799
I197133
sI14802
I23620
sI14803
I3320
sI14806
I4685
sI14808
I13045
sI14810
I4713
sI14812
I9351
sI14813
I28785
sI14814
I43655
sI14815
I17676
sI14820
I5719
sI14824
I17676
sI14825
NsI14827
I17931
sI14829
I12346
sI14831
I4713
sI14832
I17506
sI14833
I4812
sI14834
NsI14837
I1267
sI14841
NsI14842
I6739
sI14843
I2514
sI14844
I30851
sI14846
I6939
sI14850
I17511
sI14854
I42378
sI14856
I7922
sI14861
I5650
sI14864
I8447
sI14865
NsI14866
I6739
sI14870
I37197
sI14873
I42935
sI14876
I31242
sI14877
I29314
sI14880
I2856
sI14882
I5719
sI14888
I4713
sI14889
I2515
sI14892
I39835
sI14893
I37197
sI14894
I37560
sI14895
I12470
sI14897
I22927
sI14899
I12594
sI14900
I327687
sI14907
I13285
sI14909
I12324
sI14910
I9031
sI14912
I3491
sI14913
I47377
sI14914
I47377
sI14916
I5432
sI14917
I3269
sI14922
I5488
sI14924
I6830
sI14925
I3491
sI14926
I3301
sI14927
I3491
sI14928
I3491
sI14931
I3491
sI14932
I3491
sI14933
I3491
sI14934
I5607
sI14935
I12741
sI14936
I3491
sI14937
I3491
sI14938
I37406
sI14939
NsI14941
I5089
sI14942
I62874
sI14943
I37406
sI14945
I3491
sI14946
I1764
sI14950
I3491
sI14951
I3491
sI14952
I3491
sI14955
I37006
sI14956
I4739
sI14958
I36930
sI14960
I36996
sI14961
I36996
sI14965
I12874
sI14966
I8437
sI14968
I3491
sI14969
I3491
sI14970
I3491
sI14971
I3491
sI14972
NsI14973
I198420
sI14981
I5719
sI14983
I6848
sI14985
I6848
sI14986
I5432
sI14988
I5719
sI14991
I36958
sI14997
I37343
sI15000
I43599
sI15001
I2611
sI15009
I35540
sI15011
I6830
sI15012
NsI15015
I33445
sI15016
I786
sI15018
I6848
sI15019
I5432
sI15020
I33445
sI15022
I39522
sI15024
I3320
sI15026
I5089
sI15027
I3333
sI15029
NsI15030
I701
sI15033
I202194
sI15034
I11427
sI15035
I11426
sI15036
I9143
sI15037
I199964
sI15038
I7922
sI15039
I20001
sI15040
I59105
sI15041
I5610
sI15042
I7922
sI15043
I5610
sI15044
I9143
sI15045
I209
sI15046
NsI15047
NsI15048
I5610
sI15049
I6830
sI15050
I5645
sI15051
I60713
sI15052
NsI15054
I760
sI15055
I5607
sI15056
I11351
sI15059
I812
sI15060
I20001
sI15063
I12513
sI15064
NsI15070
I30600
sI15071
I11976
sI15072
I852
sI15074
I4768
sI15075
I196740
sI15078
I20001
sI15080
NsI15081
I7459
sI15082
I3352
sI15083
NsI15085
I12715
sI15086
I20115
sI15087
I31334
sI15088
I6830
sI15091
I50266
sI15093
I3265
sI15094
I9105
sI15095
I3269
sI15096
I3215
sI15097
I18106
sI15098
I35612
sI15099
I3265
sI15101
NsI15102
I4739
sI15103
NsI15105
I3292
sI15106
I5645
sI15107
I9143
sI15108
NsI15111
I20001
sI15118
I3352
sI15119
I204082
sI15120
I53250
sI15121
I30784
sI15122
I41722
sI15125
I199578
sI15126
I12322
sI15127
NsI15128
I3320
sI15129
NsI15130
NsI15131
NsI15132
I3265
sI15133
I7922
sI15136
NsI15137
I3320
sI15138
I2119
sI15139
I62078
sI15141
I51873
sI15143
I3320
sI15144
I39442
sI15145
I7922
sI15146
I3320
sI15147
I15435
sI15148
NsI15149
I2856
sI15151
I133333
sI15152
I30722
sI15153
I12414
sI15154
I8767
sI15155
I3269
sI15156
I5645
sI15159
I12874
sI15161
NsI15162
I8612
sI15164
I12322
sI15165
I30722
sI15168
I6871
sI15170
I30784
sI15171
I8473
sI15172
I7922
sI15173
I3269
sI15174
I9534
sI15175
NsI15176
I25515
sI15178
I1267
sI15179
I5432
sI15183
I12353
sI15185
I60975
sI15190
I16276
sI15191
NsI15193
NsI15194
NsI15197
I59702
sI15199
I31334
sI15205
I51873
sI15207
NsI15213
I20001
sI15217
I51873
sI15222
I20001
sI15225
NsI15226
I51873
sI15228
I20001
sI15229
I50448
sI15233
I51873
sI15234
I196750
sI15237
I11260
sI15240
NsI15241
I6848
sI15242
NsI15244
I51873
sI15245
NsI15247
I27742
sI15250
I3303
sI15251
I37457
sI15252
I20911
sI15253
I52314
sI15254
NsI15256
NsI15257
I61044
sI15261
I45951
sI15262
I28015
sI15263
I8151
sI15264
I37457
sI15265
NsI15266
I37451
sI15267
I37457
sI15270
I25543
sI15271
I3597
sI15276
I52378
sI15278
NsI15279
I51873
sI15280
NsI15282
I33765
sI15284
I61239
sI15288
NsI15294
I23889
sI15295
I52323
sI15297
I1916
sI15298
I3268
sI15299
NsI15301
I37611
sI15303
NsI15307
NsI15309
I15808
sI15313
I21042
sI15315
I45192
sI15318
I63961
sI15320
I34695
sI15322
NsI15330
I14522
sI15333
NsI15341
I61468
sI15345
I8346
sI15347
I8346
sI15348
I10474
sI15349
NsI15350
NsI15354
I37098
sI15357
I327687
sI15360
NsI15361
I8346
sI15367
NsI15368
I29535
sI15370
I5617
sI15372
I27843
sI15377
I9051
sI15381
I14754
sI15382
I37457
sI15383
I24751
sI15385
I852
sI15386
I6222
sI15387
I701
sI15389
I3265
sI15391
I17501
sI15393
I16322
sI15394
I9129
sI15395
I715
sI15397
I37457
sI15403
I197095
sI15407
I12620
sI15414
I20932
sI15420
I6830
sI15424
I12322
sI15430
I12620
sI15438
NsI15444
I16086
sI15448
I3265
sI15458
I3269
sI15464
I25002
sI15467
NsI15475
NsI15477
NsI15481
I6830
sI15483
I26610
sI15485
NsI15487
I28885
sI15488
NsI15494
I35141
sI15495
I42961
sI15496
I3265
sI15502
NsI15505
I15802
sI15523
I42387
sI15526
NsI15535
I6736
sI15545
I48030
sI15550
I7922
sI15551
I16086
sI15554
I12709
sI15560
I41722
sI15571
I9145
sI15573
I13237
sI15576
I39544
sI15581
I35362
sI15582
I2119
sI15590
I42961
sI15594
I48139
sI15597
NsI15600
NsI15602
I5410
sI15604
I9506
sI15605
I7922
sI15608
I48526
sI15609
I812
sI15610
I21299
sI15611
NsI15612
NsI15613
I9050
sI15614
I8473
sI15615
I15547
sI15616
I2527
sI15617
I7922
sI15618
I3352
sI15619
I7922
sI15620
NsI15621
I35662
sI15622
I3320
sI15623
I15732
sI15624
I6848
sI15625
I28573
sI15626
I17480
sI15627
I6830
sI15632
I3352
sI15633
I680
sI15634
I12290
sI15635
I44494
sI15636
I16086
sI15637
I6830
sI15639
I18259
sI15640
I50581
sI15641
I3215
sI15642
I49931
sI15643
I12741
sI15644
I29695
sI15647
I5410
sI15650
NsI15651
I39603
sI15652
NsI15653
I37183
sI15654
I1267
sI15655
I3215
sI15656
NsI15658
I20712
sI15659
NsI15660
NsI15661
I7922
sI15662
NsI15663
I20712
sI15665
I52215
sI15666
I6830
sI15667
I5607
sI15668
I12874
sI15669
I6400
sI15673
I28909
sI15674
I3352
sI15675
I34274
sI15676
NsI15677
NsI15678
NsI15680
I47613
sI15681
NsI15682
I2856
sI15683
I11427
sI15685
I3215
sI15686
I13037
sI15687
I198362
sI15690
I5607
sI15691
I4685
sI15695
I9105
sI15697
NsI15698
I9143
sI15699
I15557
sI15701
I17676
sI15705
NsI15706
I8402
sI15707
NsI15708
I8477
sI15709
I3292
sI15710
I8365
sI15712
I42652
sI15714
I31334
sI15716
I3320
sI15717
I13285
sI15718
I7922
sI15719
NsI15720
NsI15721
I6830
sI15722
NsI15723
I11232
sI15724
I13237
sI15725
I786
sI15728
I1759
sI15729
I39544
sI15732
I43242
sI15733
I6866
sI15734
I12322
sI15735
NsI15736
I9145
sI15737
I31012
sI15739
I35592
sI15740
I5650
sI15743
I7018
sI15744
I6327
sI15745
I13037
sI15746
NsI15747
I3215
sI15748
I6830
sI15749
I5650
sI15753
I3265
sI15756
I5410
sI15757
I3303
sI15758
I39544
sI15760
I11351
sI15761
I3265
sI15762
I3265
sI15763
I156
sI15767
I3265
sI15768
I28329
sI15770
I42459
sI15771
I15502
sI15772
I47215
sI15773
NsI15774
I9143
sI15776
I35807
sI15777
I12730
sI15778
I11351
sI15779
I3320
sI15780
I7303
sI15782
I36937
sI15785
I2856
sI15789
I12741
sI15790
I2514
sI15791
I6830
sI15792
I12741
sI15793
I12871
sI15797
I3265
sI15798
I12741
sI15799
I4739
sI15800
I7738
sI15801
I12322
sI15802
NsI15803
NsI15804
I3215
sI15805
NsI15806
I5432
sI15807
I201701
sI15809
I8422
sI15810
NsI15811
I201709
sI15812
I6830
sI15813
I13009
sI15814
NsI15816
NsI15817
I2611
sI15819
I39090
sI15820
I15557
sI15821
NsI15824
I3320
sI15825
NsI15826
I20712
sI15829
I3292
sI15830
NsI15831
I56478
sI15832
I35540
sI15833
NsI15834
I2856
sI15835
NsI15836
NsI15837
I15895
sI15838
I1273
sI15839
NsI15840
I4755
sI15842
NsI15843
I12322
sI15844
I32098
sI15845
I13037
sI15846
I15766
sI15847
I200127
sI15849
I8997
sI15850
NsI15852
I12322
sI15853
I3209
sI15854
NsI15855
NsI15856
NsI15857
I7545
sI15858
NsI15859
NsI15860
I42000
sI15861
I6830
sI15862
I18881
sI15863
NsI15865
I1161
sI15867
I30783
sI15869
I3320
sI15871
NsI15872
NsI15873
I3352
sI15874
I47610
sI15875
I6908
sI15878
I3269
sI15881
NsI15883
I37705
sI15884
I44581
sI15885
I12611
sI15886
NsI15887
I52
sI15888
NsI15889
I48142
sI15890
I35266
sI15891
NsI15892
NsI15893
I12322
sI15895
NsI15896
I3215
sI15897
NsI15898
NsI15899
NsI15900
NsI15903
I16814
sI15904
NsI15905
NsI15907
NsI15908
NsI15909
NsI15910
NsI15911
I6122
sI15913
I3269
sI15914
NsI15915
NsI15918
I20764
sI15919
I6871
sI15921
I196714
sI15922
I30036
sI15923
NsI15925
I3320
sI15926
I20115
sI15927
NsI15928
I29695
sI15929
NsI15930
I3269
sI15932
I701
sI15933
I40788
sI15934
I9506
sI15935
I2519
sI15937
NsI15938
I5483
sI15940
I8422
sI15941
I3215
sI15942
I25543
sI15943
I20764
sI15944
I28683
sI15945
I15943
sI15946
I28683
sI15947
NsI15950
I5089
sI15951
NsI15953
NsI15954
NsI15956
NsI15958
I20001
sI15959
NsI15961
I15088
sI15962
I17806
sI15964
I24634
sI15965
I42455
sI15966
I38031
sI15968
I20764
sI15969
I6752
sI15970
NsI15972
I1403
sI15973
I12322
sI15974
I45671
sI15975
NsI15976
I701
sI15977
I21247
sI15978
I7922
sI15979
I11492
sI15980
I2510
sI15982
I7922
sI15983
NsI15984
I18106
sI15986
NsI15988
I39542
sI15989
NsI15990
NsI15991
NsI15992
I6057
sI15994
NsI15995
I174
sI15997
I262802
sI15998
NsI15999
I7922
sI16002
I12066
sI16003
NsI16005
I33363
sI16006
I18881
sI16007
I12322
sI16009
NsI16010
I11232
sI16012
I6871
sI16013
I3269
sI16014
NsI16015
I3215
sI16016
NsI16017
I8708
sI16018
I56300
sI16019
I34971
sI16020
I12322
sI16021
I13037
sI16024
I7922
sI16025
NsI16026
NsI16028
NsI16029
I5610
sI16031
I2856
sI16032
I3320
sI16033
I9105
sI16034
NsI16035
NsI16037
I29518
sI16038
NsI16039
I61303
sI16040
I34383
sI16042
NsI16043
I6849
sI16044
I25660
sI16045
NsI16046
I6703
sI16047
I12322
sI16049
I6848
sI16050
I7922
sI16051
I1241
sI16052
I12322
sI16053
I7922
sI16054
I3243
sI16055
NsI16057
NsI16058
I7922
sI16059
I8445
sI16060
I4773
sI16061
I6830
sI16062
NsI16063
I6830
sI16064
I3320
sI16065
I20001
sI16067
NsI16068
I701
sI16070
I6830
sI16071
I701
sI16072
I7922
sI16074
I31655
sI16075
I3215
sI16076
I3320
sI16077
NsI16082
I6830
sI16084
NsI16085
I18106
sI16087
I13189
sI16089
I15557
sI16091
I5410
sI16092
I29077
sI16095
I3320
sI16097
I12727
sI16100
I2860
sI16101
I30784
sI16102
NsI16103
I701
sI16104
I17547
sI16105
NsI16106
I12923
sI16107
I6327
sI16108
I3292
sI16109
I49009
sI16110
I7018
sI16111
I12083
sI16112
I2856
sI16114
NsI16115
NsI16116
I5089
sI16117
I12322
sI16118
I35540
sI16119
I3320
sI16120
NsI16121
I25310
sI16122
NsI16123
I50168
sI16125
NsI16126
I3320
sI16127
NsI16128
NsI16130
I5607
sI16131
I54858
sI16133
NsI16135
I1764
sI16137
I6830
sI16139
NsI16143
I8331
sI16144
I5089
sI16145
NsI16146
I12322
sI16147
I15943
sI16148
I202198
sI16149
I6805
sI16150
NsI16151
NsI16152
I6855
sI16153
NsI16154
I2856
sI16155
I7922
sI16156
I8893
sI16157
I6400
sI16158
NsI16160
NsI16162
I3209
sI16163
I7922
sI16165
I701
sI16167
NsI16168
I6830
sI16169
I6830
sI16172
I22799
sI16174
I12705
sI16175
NsI16176
NsI16178
NsI16181
NsI16182
I22773
sI16183
NsI16184
NsI16185
I35612
sI16186
I7657
sI16187
I35995
sI16188
I6830
sI16190
I103
sI16192
I2119
sI16193
I53904
sI16194
NsI16195
I21309
sI16196
NsI16197
NsI16198
I7922
sI16199
NsI16200
I8708
sI16204
NsI16209
I8866
sI16210
I5421
sI16211
I48452
sI16212
I31287
sI16216
I13124
sI16217
I29580
sI16218
I35505
sI16223
I29244
sI16226
I48747
sI16233
I3265
sI16234
I28573
sI16235
I21183
sI16239
NsI16245
I8866
sI16246
NsI16248
I6830
sI16249
I44002
sI16250
NsI16251
NsI16252
NsI16254
I6830
sI16255
NsI16257
I44869
sI16258
I15432
sI16259
I9143
sI16260
NsI16263
I20952
sI16264
I12874
sI16265
I6830
sI16266
I3320
sI16267
NsI16268
I3209
sI16269
NsI16270
I31655
sI16271
NsI16272
I9143
sI16273
I2527
sI16274
I29396
sI16276
I5432
sI16277
NsI16278
I60294
sI16279
I29695
sI16280
NsI16281
I5432
sI16282
NsI16283
NsI16284
I39647
sI16285
NsI16286
I6805
sI16287
NsI16288
I9070
sI16290
I9143
sI16291
NsI16292
NsI16294
I13037
sI16296
NsI16297
I3320
sI16298
I12414
sI16300
I25394
sI16301
I13046
sI16302
I5617
sI16303
I12874
sI16304
I3320
sI16305
I43350
sI16307
I9136
sI16309
I8365
sI16310
NsI16311
I12714
sI16312
I2856
sI16313
NsI16317
I3320
sI16319
NsI16320
I57118
sI16323
I51873
sI16324
I1267
sI16329
I31334
sI16330
I3269
sI16334
I12989
sI16335
NsI16341
I31012
sI16342
I30722
sI16343
I1267
sI16346
I8877
sI16347
I43205
sI16349
I43205
sI16350
I30722
sI16351
I49188
sI16354
I8672
sI16356
I9070
sI16357
I43205
sI16360
I35489
sI16361
NsI16363
I8717
sI16365
I6802
sI16366
I29485
sI16370
NsI16372
I8866
sI16375
NsI16376
I3215
sI16377
I6802
sI16379
NsI16380
NsI16381
I262794
sI16385
NsI16387
I6830
sI16388
I8402
sI16391
NsI16392
NsI16393
I25513
sI16398
NsI16399
I8866
sI16402
I39505
sI16404
I35141
sI16410
I6128
sI16412
I6802
sI16414
I11845
sI16417
NsI16422
I35047
sI16438
I36937
sI16445
I327761
sI16449
I5391
sI16452
I41897
sI16453
I43561
sI16454
I37353
sI16456
I4766
sI16457
NsI16458
I11845
sI16461
I7922
sI16470
I209
sI16471
NsI16473
I33762
sI16475
NsI16478
NsI16484
I1916
sI16486
I15802
sI16488
I7018
sI16490
I37557
sI16493
I25184
sI16498
I37645
sI16500
I47610
sI16501
I8422
sI16502
I47610
sI16503
I3320
sI16504
I3209
sI16505
I3320
sI16509
I3320
sI16515
I42910
sI16519
I3209
sI16524
I4812
sI16525
I790
sI16529
NsI16530
I12586
sI16534
I3352
sI16539
I3320
sI16540
NsI16541
I262249
sI16542
I201701
sI16544
I28573
sI16545
I47610
sI16546
I8365
sI16548
I18881
sI16551
I6830
sI16555
I42652
sI16557
I13030
sI16559
NsI16562
I4812
sI16565
I57344
sI16567
NsI16573
I14259
sI16574
I21021
sI16576
I27733
sI16578
NsI16579
NsI16583
I3209
sI16584
I8365
sI16585
NsI16587
I203898
sI16589
I57961
sI16592
I29580
sI16594
I9127
sI16596
I42298
sI16599
I46887
sI16600
I8447
sI16601
I9121
sI16602
I13194
sI16603
I13194
sI16605
I60304
sI16607
I705
sI16608
NsI16609
NsI16611
I5483
sI16612
I5483
sI16613
NsI16616
I12874
sI16619
I3352
sI16620
I3215
sI16621
I701
sI16623
I3352
sI16626
I20845
sI16629
I201959
sI16632
I132199
sI16633
I812
sI16638
I47524
sI16639
NsI16641
I46375
sI16644
I12322
sI16645
I12322
sI16646
I29208
sI16651
I2856
sI16657
I197083
sI16658
I60319
sI16659
I26803
sI16661
I2609
sI16663
I2852
sI16664
I32881
sI16665
I60316
sI16666
I13036
sI16667
I3320
sI16668
I25596
sI16669
I23655
sI16670
I12322
sI16671
I29314
sI16676
I202056
sI16686
I37197
sI16687
I24835
sI16689
I28573
sI16692
I56523
sI16693
I3320
sI16696
I6830
sI16697
I6830
sI16701
I8251
sI16703
I12322
sI16706
I8251
sI16710
I51083
sI16714
I37309
sI16715
I5610
sI16716
I44384
sI16718
I6830
sI16720
I28972
sI16721
I2716
sI16722
I38952
sI16723
I59990
sI16725
I5617
sI16728
I8251
sI16730
I26615
sI16731
I15425
sI16732
I2852
sI16733
I53062
sI16734
I60277
sI16735
I22548
sI16736
I5617
sI16738
NsI16741
I6830
sI16748
I3215
sI16751
I6830
sI16753
I30844
sI16754
I61194
sI16756
NsI16757
I42970
sI16758
I15614
sI16759
I50583
sI16761
I8758
sI16763
I35063
sI16765
I51083
sI16766
I48200
sI16768
I201333
sI16769
I29695
sI16771
I13036
sI16776
I2121
sI16777
I28972
sI16778
I7594
sI16785
I7922
sI16787
I2119
sI16789
I20766
sI16795
I42525
sI16800
I3215
sI16801
I12322
sI16802
I3265
sI16803
I3265
sI16804
I5089
sI16805
NsI16807
NsI16808
I39544
sI16811
NsI16813
I12322
sI16814
I5607
sI16815
I12322
sI16818
I12322
sI16819
I5410
sI16820
I12322
sI16821
I18881
sI16822
I9143
sI16823
I12322
sI16825
NsI16826
NsI16827
I5610
sI16828
NsI16829
NsI16830
NsI16831
I44439
sI16834
I15557
sI16835
NsI16837
I5645
sI16838
I17072
sI16839
I12414
sI16841
I42682
sI16843
NsI16844
NsI16845
I7922
sI16847
I12414
sI16851
NsI16852
I3265
sI16853
I2607
sI16854
I201285
sI16855
I12414
sI16856
I3265
sI16857
I35141
sI16859
I3215
sI16860
I48592
sI16861
I3215
sI16862
I7922
sI16863
NsI16864
I50522
sI16865
I22773
sI16866
NsI16867
NsI16868
I15435
sI16869
I12322
sI16871
I3215
sI16872
I12322
sI16873
I12322
sI16874
I3215
sI16876
I50535
sI16878
I202069
sI16879
I3215
sI16881
I12322
sI16882
I29396
sI16883
NsI16887
I4739
sI16889
I7922
sI16891
I4739
sI16893
I3320
sI16894
I31334
sI16896
I22561
sI16897
I13188
sI16898
I11776
sI16899
NsI16900
I22773
sI16901
I15557
sI16902
I31055
sI16903
NsI16905
I12322
sI16908
I5607
sI16909
I7922
sI16910
I12844
sI16911
NsI16913
NsI16914
I174
sI16915
I21502
sI16917
I3215
sI16919
I12322
sI16922
NsI16923
I3215
sI16924
I5410
sI16927
I198047
sI16928
I20712
sI16930
I15502
sI16931
I20956
sI16933
I378
sI16934
NsI16935
NsI16936
NsI16938
I12322
sI16939
I812
sI16940
I25540
sI16941
NsI16945
I5089
sI16947
NsI16948
I3215
sI16949
I20001
sI16950
I35522
sI16951
I5650
sI16953
I7922
sI16955
I15435
sI16956
I5410
sI16957
I5432
sI16959
I12322
sI16960
I36986
sI16961
I9143
sI16962
I3215
sI16964
I2018
sI16967
I12322
sI16969
I3215
sI16970
I7922
sI16971
I12322
sI16972
I5410
sI16973
I12322
sI16974
I12322
sI16977
I15557
sI16978
I12322
sI16979
I61956
sI16980
I1136
sI16981
I12322
sI16982
I12322
sI16984
I3265
sI16985
I61319
sI16986
I12670
sI16987
I3215
sI16989
I2200
sI16990
NsI16991
I12322
sI16992
I12844
sI16993
I3215
sI16996
I12322
sI16998
I12322
sI17003
I7575
sI17007
I56055
sI17008
I28573
sI17009
I7470
sI17011
I132933
sI17017
I7470
sI17018
I3215
sI17020
I21502
sI17022
NsI17024
I12322
sI17025
I12322
sI17026
I35540
sI17027
I12322
sI17028
I3320
sI17029
I35540
sI17030
I15557
sI17032
I12322
sI17035
I12322
sI17036
I15557
sI17037
I15747
sI17038
I21502
sI17039
I3215
sI17040
I12322
sI17041
NsI17042
I12876
sI17046
I15557
sI17047
I3215
sI17049
I3215
sI17050
I15598
sI17051
I21502
sI17054
I15557
sI17055
I15557
sI17056
I12322
sI17058
I12322
sI17059
I12322
sI17060
I199125
sI17061
NsI17062
I3215
sI17063
I12322
sI17064
I12322
sI17065
I3215
sI17066
I21502
sI17067
I21502
sI17070
I12322
sI17072
I12322
sI17073
I21502
sI17074
I3215
sI17076
I3215
sI17078
I12322
sI17079
I5432
sI17081
I5087
sI17082
I15557
sI17083
I5410
sI17085
I8607
sI17089
I21502
sI17091
I3215
sI17092
I21502
sI17093
I12322
sI17095
I16347
sI17096
I8228
sI17097
I5410
sI17098
I35540
sI17099
I3215
sI17102
I6830
sI17103
NsI17104
I12322
sI17106
I12322
sI17107
I23752
sI17110
I3215
sI17111
I12322
sI17113
I3215
sI17114
I12392
sI17115
I12322
sI17116
I4713
sI17119
I133051
sI17121
I12322
sI17123
I3215
sI17124
I3215
sI17125
NsI17127
I12322
sI17128
I5410
sI17129
I12322
sI17131
I12322
sI17132
I3215
sI17133
I35540
sI17134
I35540
sI17136
I12322
sI17137
NsI17138
I16347
sI17139
NsI17140
I12322
sI17141
I3215
sI17143
I12322
sI17145
I3215
sI17146
I3215
sI17148
I12322
sI17149
I3215
sI17152
NsI17153
I3215
sI17154
I12322
sI17155
I16276
sI17156
NsI17157
I15557
sI17160
I12322
sI17161
I12322
sI17163
I3215
sI17164
I56089
sI17165
I3215
sI17166
I12322
sI17170
I202089
sI17171
I15557
sI17174
I12322
sI17176
I38639
sI17178
I55423
sI17184
NsI17185
I21502
sI17186
I24550
sI17188
I45629
sI17190
I23872
sI17191
NsI17193
I5410
sI17195
I6799
sI17196
I35540
sI17200
I12322
sI17201
NsI17202
I12322
sI17203
I3320
sI17204
I3215
sI17208
I12322
sI17209
I12322
sI17212
I3215
sI17213
I197076
sI17214
I12322
sI17215
I197076
sI17218
I21637
sI17220
I3215
sI17221
I12322
sI17224
I3215
sI17225
I12322
sI17226
I53610
sI17227
I12322
sI17228
I12322
sI17229
I6830
sI17230
I12322
sI17231
I15557
sI17233
I3215
sI17234
I13193
sI17238
I35540
sI17239
I3215
sI17240
I5410
sI17242
I12322
sI17244
I2200
sI17245
I12322
sI17246
I13030
sI17247
I12322
sI17249
I15943
sI17250
I6805
sI17251
I47377
sI17252
I3320
sI17253
I12322
sI17254
I21502
sI17257
I8877
sI17258
NsI17260
I29550
sI17261
I25133
sI17262
I3215
sI17263
I12322
sI17265
I3215
sI17268
NsI17269
I22652
sI17270
I197451
sI17271
I25106
sI17272
I21351
sI17273
I12322
sI17276
I12322
sI17277
NsI17278
I15557
sI17279
I12322
sI17280
I60879
sI17282
I7122
sI17283
I3265
sI17285
I42518
sI17286
I49560
sI17289
I21502
sI17291
I31334
sI17294
I12392
sI17295
NsI17296
NsI17297
I9143
sI17299
NsI17300
I12844
sI17301
NsI17304
I5769
sI17305
NsI17306
I31514
sI17308
I6830
sI17309
I3215
sI17310
NsI17312
I2516
sI17314
I680
sI17315
I35995
sI17316
NsI17317
I3292
sI17318
I48917
sI17319
NsI17320
NsI17322
NsI17324
I6327
sI17325
I3208
sI17326
I60830
sI17327
I12322
sI17330
I21502
sI17335
I24940
sI17338
I5432
sI17343
I34555
sI17348
I12322
sI17350
I33983
sI17352
NsI17356
I133579
sI17361
I13287
sI17363
NsI17367
I47451
sI17372
I34781
sI17373
I35540
sI17374
I15557
sI17375
I15557
sI17376
I15547
sI17377
NsI17378
I49931
sI17381
I49931
sI17382
I63270
sI17386
I5432
sI17387
I12322
sI17390
I5432
sI17392
I5089
sI17393
I12322
sI17394
I5432
sI17395
I3303
sI17396
I5432
sI17397
I12322
sI17399
I15547
sI17404
I9534
sI17407
NsI17408
I11814
sI17410
I701
sI17414
I32354
sI17419
I6908
sI17420
I6736
sI17421
I201505
sI17423
I7922
sI17425
I9534
sI17428
I4788
sI17435
I15659
sI17436
I6736
sI17437
I6736
sI17438
I2200
sI17442
I6908
sI17443
I9534
sI17444
I5645
sI17450
I9930
sI17452
I27768
sI17455
I28573
sI17460
I5645
sI17461
I27665
sI17464
I35540
sI17470
NsI17472
I41164
sI17474
I18822
sI17476
I60163
sI17477
I6057
sI17478
I22047
sI17482
I7018
sI17483
I7922
sI17488
I6805
sI17490
I701
sI17491
I6830
sI17492
I7922
sI17494
I13037
sI17495
I48200
sI17497
I6830
sI17500
I8426
sI17501
NsI17502
I12322
sI17503
I6067
sI17505
I5089
sI17506
I30312
sI17508
I4788
sI17510
I9085
sI17511
I5607
sI17514
I201977
sI17515
I2529
sI17516
I6908
sI17522
I39354
sI17525
I12322
sI17527
I16082
sI17529
I198722
sI17532
I701
sI17533
I35612
sI17534
I21949
sI17535
I36810
sI17538
I48200
sI17540
I20880
sI17541
I3269
sI17542
I3320
sI17543
I3215
sI17545
NsI17546
I24877
sI17549
I786
sI17550
I11404
sI17551
I5607
sI17552
I20766
sI17554
I5408
sI17555
I35540
sI17556
I2518
sI17557
I3491
sI17558
I7657
sI17559
I9872
sI17560
I3491
sI17563
I62212
sI17564
I15557
sI17565
I37979
sI17566
I3215
sI17567
I18202
sI17568
I3215
sI17569
I12322
sI17571
I5617
sI17572
I12464
sI17575
NsI17578
I17494
sI17579
I20880
sI17582
I7018
sI17583
I577
sI17584
I20848
sI17586
NsI17587
I11404
sI17588
I15557
sI17590
I56268
sI17591
I7922
sI17592
NsI17594
I133579
sI17595
I11994
sI17596
I237
sI17601
I6058
sI17602
I2514
sI17603
I3269
sI17604
I1955
sI17605
I786
sI17608
I786
sI17609
I2603
sI17613
NsI17616
I1103
sI17617
NsI17619
I8402
sI17620
I8111
sI17622
NsI17624
I196925
sI17625
I8359
sI17626
I23923
sI17628
I9198
sI17629
NsI17630
NsI17631
I42610
sI17632
I35540
sI17633
NsI17634
I7018
sI17637
I5089
sI17640
NsI17641
NsI17642
NsI17643
I224
sI17644
I224
sI17646
I29492
sI17649
I47873
sI17651
I49533
sI17656
I5650
sI17658
I50045
sI17662
I36934
sI17663
NsI17666
I3216
sI17670
I8359
sI17672
I5381
sI17673
I2116
sI17674
I34087
sI17676
I15765
sI17679
I8402
sI17681
I43097
sI17683
I29695
sI17689
I31514
sI17692
I8359
sI17694
I48166
sI17700
I3215
sI17703
I199860
sI17704
I31500
sI17706
I12714
sI17709
I8752
sI17713
I6908
sI17715
I1136
sI17716
I8402
sI17717
I8334
sI17718
I8641
sI17723
NsI17724
I28890
sI17727
NsI17731
I48592
sI17733
I34456
sI17736
I6908
sI17744
I42610
sI17753
I21351
sI17758
I137
sI17762
I20776
sI17764
I197498
sI17765
I7018
sI17767
I15290
sI17772
NsI17773
I57809
sI17774
NsI17775
I198183
sI17777
I199803
sI17779
NsI17780
I41562
sI17781
I8402
sI17783
I197298
sI17784
I43557
sI17785
NsI17787
NsI17788
NsI17789
I2527
sI17790
NsI17792
NsI17793
I5617
sI17796
I5645
sI17797
I7018
sI17798
I6799
sI17800
I5607
sI17801
NsI17802
NsI17803
NsI17805
I4323
sI17807
I9534
sI17809
I40029
sI17811
I46650
sI17813
NsI17814
I15547
sI17817
NsI17818
NsI17820
NsI17821
NsI17822
I7018
sI17823
I34781
sI17824
I59547
sI17825
I6830
sI17826
I6057
sI17827
I33796
sI17828
NsI17830
I852
sI17831
I61955
sI17832
I378
sI17833
I11051
sI17834
NsI17835
NsI17837
I42298
sI17840
I6327
sI17841
I198420
sI17844
I41783
sI17845
I852
sI17846
I378
sI17847
I378
sI17848
I12322
sI17849
NsI17850
NsI17855
I378
sI17856
I378
sI17858
I24961
sI17860
I852
sI17861
I28929
sI17862
NsI17863
I48574
sI17864
I41164
sI17865
I1967
sI17866
I9143
sI17867
NsI17868
I3215
sI17875
I378
sI17879
I378
sI17880
I37529
sI17881
NsI17882
I378
sI17883
I42298
sI17889
I15964
sI17893
I378
sI17894
I6871
sI17895
I378
sI17896
NsI17901
I15964
sI17903
I45010
sI17904
NsI17906
I40981
sI17907
I31693
sI17908
I6327
sI17909
I6661
sI17910
I19662
sI17912
I133165
sI17913
I41334
sI17914
I5650
sI17916
NsI17917
I201978
sI17918
I33885
sI17919
I202032
sI17920
I3215
sI17921
I47833
sI17922
I5645
sI17924
I9008
sI17925
I11727
sI17926
NsI17929
I7922
sI17930
I25248
sI17931
I35592
sI17932
I22690
sI17934
I5432
sI17935
NsI17936
I27883
sI17937
NsI17939
NsI17941
I16019
sI17942
I16591
sI17946
I7922
sI17948
I9143
sI17950
I6830
sI17953
I6830
sI17955
I6871
sI17956
I3215
sI17958
I5607
sI17960
I12844
sI17961
I35046
sI17962
I13110
sI17964
NsI17968
I6830
sI17969
NsI17970
NsI17974
I42205
sI17978
I12874
sI17979
I13037
sI17982
I15802
sI17983
NsI17984
I9143
sI17990
I5607
sI17992
I46650
sI17993
I394536
sI17994
I3215
sI17995
NsI17997
I6830
sI17998
I3265
sI18000
I2602
sI18001
NsI18013
I197119
sI18015
I1653
sI18016
I43030
sI18018
NsI18019
NsI18021
I52502
sI18022
I53904
sI18024
I24893
sI18029
NsI18031
I3329
sI18033
I197119
sI18034
NsI18035
I43030
sI18036
I12353
sI18038
I16010
sI18041
I20545
sI18045
I34984
sI18046
I16086
sI18047
I201822
sI18051
I41164
sI18052
I7018
sI18054
I786
sI18056
I199081
sI18059
I5089
sI18060
I29314
sI18061
I16160
sI18062
I7922
sI18063
I5578
sI18068
I44973
sI18069
I1659
sI18076
I9199
sI18078
I15389
sI18081
I8778
sI18085
I5408
sI18087
I1241
sI18089
I3320
sI18091
I20661
sI18095
I239
sI18097
NsI18107
I3243
sI18109
I34245
sI18110
I60846
sI18111
I6855
sI18112
I36937
sI18113
I49941
sI18114
I36982
sI18118
I42910
sI18119
I8466
sI18122
I8400
sI18129
I36937
sI18130
I31042
sI18131
I3741
sI18135
I327817
sI18138
I8771
sI18140
I9121
sI18148
I10292
sI18152
I3661
sI18153
I11139
sI18156
NsI18157
I17882
sI18159
I200770
sI18160
I39875
sI18161
I13110
sI18162
I10197
sI18165
I31042
sI18166
I23855
sI18169
I37520
sI18173
I30851
sI18176
I12348
sI18179
I30689
sI18185
I9329
sI18189
I4796
sI18192
I4616
sI18195
I3741
sI18199
I1237
sI18201
I7922
sI18203
I577
sI18207
I57172
sI18208
I61143
sI18211
NsI18212
I6128
sI18213
I35314
sI18214
I2856
sI18216
I2119
sI18217
NsI18218
NsI18220
NsI18223
NsI18225
I5466
sI18227
I15965
sI18232
I20299
sI18233
I12392
sI18234
I25285
sI18235
NsI18239
I33628
sI18240
I12844
sI18243
I24691
sI18244
I42642
sI18247
I7922
sI18248
NsI18250
I7727
sI18251
NsI18252
I30036
sI18253
NsI18254
I36937
sI18255
NsI18256
I202089
sI18257
NsI18258
NsI18260
I48309
sI18263
I36939
sI18265
I5432
sI18267
NsI18268
I5089
sI18269
I7922
sI18272
NsI18273
I51718
sI18274
I20904
sI18275
I7922
sI18276
NsI18277
I6830
sI18279
I25255
sI18280
I57262
sI18283
I15502
sI18284
I20712
sI18285
I2110
sI18286
I2514
sI18287
I12775
sI18288
I16342
sI18289
I12392
sI18290
I3209
sI18292
I12479
sI18293
I29644
sI18294
NsI18295
NsI18296
I15716
sI18297
I13030
sI18298
I16030
sI18299
I52075
sI18300
I5403
sI18301
I8201
sI18302
I39591
sI18303
NsI18304
I34549
sI18305
I12605
sI18306
I5645
sI18309
I52063
sI18310
I199484
sI18311
I3324
sI18312
I3301
sI18314
I20712
sI18315
I42525
sI18316
I12322
sI18317
I20917
sI18318
I13285
sI18319
I21472
sI18320
I28847
sI18321
I13037
sI18322
I5645
sI18323
I6848
sI18324
NsI18325
I199853
sI18326
I6752
sI18327
NsI18328
I6830
sI18329
I197216
sI18330
NsI18331
NsI18334
I19192
sI18335
NsI18336
I12322
sI18337
I43583
sI18338
I6830
sI18339
I202215
sI18340
I6799
sI18341
NsI18343
NsI18344
I16347
sI18345
I15502
sI18346
NsI18347
I12844
sI18348
I15594
sI18349
I42910
sI18350
I3269
sI18351
NsI18352
NsI18356
I62336
sI18357
I22047
sI18359
I18126
sI18361
I5466
sI18362
I6866
sI18363
I5466
sI18364
I5466
sI18365
I197731
sI18366
I1213
sI18369
I10094
sI18370
I34233
sI18372
I16591
sI18374
NsI18375
I201964
sI18376
NsI18378
I51754
sI18379
I3292
sI18380
I5432
sI18381
NsI18383
I39823
sI18384
I198335
sI18385
I55430
sI18386
I8426
sI18387
I1213
sI18388
I9378
sI18389
I5432
sI18390
I8564
sI18391
NsI18392
I5483
sI18393
I3320
sI18394
I15965
sI18396
I12392
sI18397
I5089
sI18398
I12635
sI18399
I15502
sI18400
NsI18401
I6830
sI18402
I20712
sI18405
I12353
sI18409
NsI18410
I6830
sI18411
I12145
sI18412
I13285
sI18414
I7922
sI18416
I31148
sI18418
I9143
sI18419
NsI18421
I8607
sI18422
I13178
sI18423
I198002
sI18424
I7922
sI18425
NsI18429
I12322
sI18430
I51263
sI18431
NsI18432
I852
sI18433
I6830
sI18434
I37309
sI18435
I20115
sI18436
NsI18437
I852
sI18438
I7018
sI18439
I20115
sI18440
I29170
sI18441
NsI18442
I198731
sI18444
I16246
sI18446
I6830
sI18447
I9105
sI18448
NsI18450
NsI18451
I7922
sI18452
I14877
sI18454
I59466
sI18455
I3786
sI18456
NsI18457
I6830
sI18460
I5432
sI18462
I31334
sI18463
NsI18465
I3301
sI18466
I1901
sI18467
I31349
sI18469
I16246
sI18470
I31334
sI18473
I6057
sI18474
I44084
sI18475
NsI18477
I4804
sI18478
I1759
sI18480
NsI18483
I37503
sI18484
I35378
sI18485
NsI18486
I12741
sI18487
I1680
sI18488
NsI18489
NsI18490
I23966
sI18491
I47237
sI18494
I8982
sI18497
I9318
sI18500
I6079
sI18501
I5466
sI18503
I12479
sI18504
I7922
sI18506
NsI18508
NsI18509
I7922
sI18510
NsI18511
I7922
sI18512
I7018
sI18513
NsI18514
I37524
sI18516
I7922
sI18517
I3215
sI18518
I7922
sI18519
I41440
sI18520
I30783
sI18521
I6830
sI18522
NsI18523
NsI18524
I35140
sI18525
I4766
sI18526
NsI18530
I12430
sI18534
I39007
sI18539
I30783
sI18540
I6830
sI18542
NsI18543
I20625
sI18544
I6752
sI18545
NsI18548
I8228
sI18549
I15557
sI18550
I12110
sI18551
NsI18554
I58079
sI18559
I34622
sI18561
I11427
sI18563
I30722
sI18564
I21479
sI18566
I8251
sI18567
I12993
sI18568
NsI18569
I8365
sI18570
I16246
sI18572
I12322
sI18573
I6752
sI18576
I6752
sI18577
NsI18578
I30298
sI18579
I48971
sI18584
I3786
sI18585
I40490
sI18586
I8251
sI18587
I31334
sI18588
I43561
sI18589
I9318
sI18592
NsI18594
I28851
sI18595
I35540
sI18596
I10197
sI18599
I16
sI18600
I16097
sI18601
I34749
sI18603
NsI18604
I15935
sI18605
I6830
sI18606
I35492
sI18607
I44500
sI18609
I137
sI18611
I198668
sI18612
NsI18613
I31042
sI18614
NsI18617
I5432
sI18618
I35613
sI18620
I9105
sI18621
I17660
sI18622
NsI18623
I201787
sI18624
I3269
sI18625
I10036
sI18627
I4638
sI18631
NsI18635
I3209
sI18637
NsI18638
NsI18639
I33874
sI18641
I49613
sI18642
NsI18643
I38229
sI18645
I38229
sI18648
I38229
sI18651
I31479
sI18655
I786
sI18656
I35045
sI18657
I20001
sI18658
I4766
sI18659
I786
sI18662
I3265
sI18664
I104
sI18665
I786
sI18667
I7922
sI18668
NsI18669
I17660
sI18670
I6739
sI18671
I11845
sI18673
I197975
sI18675
I33824
sI18676
I47902
sI18678
I6830
sI18679
I17660
sI18680
NsI18681
I44957
sI18682
I5610
sI18683
I5610
sI18685
I12322
sI18686
I41046
sI18687
NsI18690
I6830
sI18691
I5547
sI18693
NsI18695
I12252
sI18696
I5610
sI18697
I60820
sI18700
I1916
sI18705
NsI18712
I12252
sI18713
I7922
sI18714
NsI18716
I38229
sI18718
I30982
sI18719
I38229
sI18720
I61349
sI18722
I577
sI18723
I17660
sI18724
NsI18725
I6752
sI18727
I38229
sI18729
I38229
sI18731
I38229
sI18732
I38229
sI18734
NsI18735
I786
sI18737
I5645
sI18740
I27843
sI18741
I30036
sI18743
I12392
sI18744
I6752
sI18745
I6830
sI18746
I8551
sI18747
I42525
sI18748
NsI18749
I4766
sI18750
I577
sI18751
I13036
sI18752
NsI18753
I30982
sI18755
I51806
sI18756
I5610
sI18757
NsI18759
I6752
sI18761
I18106
sI18762
I6752
sI18763
NsI18764
NsI18765
I5610
sI18766
I25248
sI18767
I51375
sI18769
I12709
sI18771
I23889
sI18772
I38229
sI18773
I35613
sI18775
I766
sI18776
I16160
sI18777
I31246
sI18778
NsI18781
I3320
sI18784
I18106
sI18786
I11351
sI18790
I38229
sI18791
I5650
sI18794
I38229
sI18795
I51263
sI18798
I8315
sI18801
I3352
sI18803
I2119
sI18805
I47438
sI18806
I34580
sI18807
NsI18808
I3242
sI18809
NsI18810
I51504
sI18812
I23655
sI18815
I24672
sI18817
I25431
sI18818
I9143
sI18819
I28878
sI18823
I3303
sI18824
I3265
sI18829
I39647
sI18830
I44507
sI18831
I43413
sI18833
I12479
sI18834
I21502
sI18835
I3303
sI18837
I25431
sI18838
I6327
sI18839
NsI18840
I55666
sI18841
I39608
sI18844
I12430
sI18845
I17884
sI18846
I31257
sI18849
I6400
sI18850
I133817
sI18851
I27887
sI18853
I35328
sI18856
I43451
sI18857
I46887
sI18858
I35328
sI18859
I25431
sI18861
I29405
sI18863
NsI18864
I35432
sI18865
I14754
sI18866
I3352
sI18871
I133075
sI18872
I31117
sI18873
I59504
sI18875
I35328
sI18876
I4134
sI18877
I42841
sI18878
I35328
sI18880
I4134
sI18881
I4134
sI18883
I9411
sI18884
I45294
sI18887
I197335
sI18890
I1136
sI18891
I9872
sI18892
NsI18894
I57227
sI18896
I32881
sI18897
I4385
sI18898
I701
sI18902
I42355
sI18904
I198336
sI18905
I197893
sI18906
I49718
sI18907
I12466
sI18912
NsI18913
NsI18914
I35310
sI18915
I15557
sI18917
I28849
sI18920
NsI18921
I25106
sI18923
I5639
sI18924
I16353
sI18925
NsI18926
I51214
sI18927
NsI18931
I6830
sI18935
NsI18937
I31334
sI18938
I15943
sI18939
I16246
sI18940
I58239
sI18942
I2107
sI18943
I50195
sI18944
I2107
sI18945
I2107
sI18946
I34779
sI18947
I36423
sI18948
I25431
sI18950
I3308
sI18951
I6128
sI18956
I3320
sI18957
I6830
sI18959
I25500
sI18960
I12687
sI18962
I29599
sI18965
I6807
sI18968
I29049
sI18970
I29049
sI18974
NsI18975
I43384
sI18984
I20545
sI18986
NsI18988
I9199
sI18994
I29049
sI18995
I5639
sI18996
I5607
sI18999
NsI19002
I28573
sI19003
I5089
sI19005
NsI19008
I44964
sI19009
I6871
sI19010
I12874
sI19014
I4760
sI19015
I395089
sI19016
I7922
sI19018
NsI19019
I4739
sI19022
NsI19024
I6648
sI19025
I3215
sI19026
NsI19027
I20115
sI19030
I43437
sI19031
I28573
sI19032
I15557
sI19033
I5650
sI19035
I41881
sI19038
I34779
sI19041
I55430
sI19043
NsI19044
I51669
sI19045
NsI19046
I132917
sI19047
I7922
sI19048
I36937
sI19049
I3582
sI19051
I63848
sI19052
NsI19054
I17676
sI19055
I48953
sI19056
I4788
sI19057
I62823
sI19059
I378
sI19062
I9506
sI19063
I5607
sI19065
I7794
sI19066
I17676
sI19067
NsI19068
I34779
sI19069
I26615
sI19070
NsI19071
I12400
sI19072
I6871
sI19074
NsI19075
I49902
sI19076
I19165
sI19078
I31820
sI19079
I31692
sI19080
I5650
sI19081
NsI19082
I11427
sI19083
I44045
sI19084
I55536
sI19092
I4775
sI19093
I31370
sI19094
NsI19095
NsI19096
I8100
sI19099
I17676
sI19100
I2856
sI19101
I61102
sI19103
I7570
sI19104
I199631
sI19105
NsI19106
I41617
sI19107
I2516
sI19108
NsI19110
I36731
sI19111
NsI19112
I5466
sI19113
NsI19115
NsI19117
I2686
sI19118
I10796
sI19119
I17185
sI19120
NsI19121
I41026
sI19122
I20001
sI19123
I44065
sI19124
NsI19125
I209
sI19126
I12455
sI19127
I17721
sI19128
I51551
sI19129
NsI19131
I5650
sI19133
I5607
sI19134
I9299
sI19135
I20161
sI19137
I62638
sI19139
I7018
sI19140
I263793
sI19141
I6648
sI19142
I23889
sI19143
I5089
sI19144
I34706
sI19145
I7922
sI19146
I16301
sI19148
I46375
sI19149
I12975
sI19150
NsI19151
NsI19152
I13896
sI19153
NsI19156
NsI19157
I31494
sI19160
I135132
sI19161
NsI19162
NsI19163
I7922
sI19164
I7922
sI19166
I35640
sI19167
I37002
sI19169
I7922
sI19170
I9299
sI19171
I5607
sI19172
I7922
sI19174
I58437
sI19176
I3243
sI19178
I17552
sI19179
I25061
sI19180
I5645
sI19181
I30902
sI19182
I5089
sI19183
I7794
sI19184
I9930
sI19185
I9299
sI19187
NsI19188
NsI19189
NsI19190
NsI19192
I63927
sI19193
I17639
sI19195
I44507
sI19197
I6697
sI19198
I133498
sI19199
I62217
sI19200
I10796
sI19201
I25543
sI19202
I62353
sI19207
I17858
sI19208
I29396
sI19209
NsI19210
I9153
sI19211
I37187
sI19212
NsI19213
I25151
sI19214
I701
sI19219
I34168
sI19220
I786
sI19223
I15735
sI19224
NsI19226
I25512
sI19228
I25248
sI19229
NsI19230
I14840
sI19233
I196697
sI19234
I6830
sI19238
NsI19239
I7922
sI19241
I28573
sI19242
I5588
sI19243
NsI19245
NsI19246
I32329
sI19247
NsI19248
I28685
sI19249
I49367
sI19250
I34683
sI19251
I5432
sI19252
I7922
sI19253
I11404
sI19255
I197219
sI19256
I12322
sI19258
I8339
sI19259
I4323
sI19261
I7922
sI19262
I3582
sI19267
I8422
sI19269
NsI19270
I22773
sI19273
I701
sI19275
NsI19276
I3303
sI19277
I4766
sI19279
I200129
sI19282
I61029
sI19286
I199312
sI19287
I33837
sI19290
NsI19291
I49896
sI19292
I44431
sI19293
I6830
sI19295
I2200
sI19296
NsI19298
I198452
sI19299
I199524
sI19300
NsI19301
I6830
sI19302
I198208
sI19303
I9026
sI19304
I62225
sI19305
I50095
sI19306
I199324
sI19307
I199524
sI19308
I199524
sI19309
I199328
sI19310
I28742
sI19311
NsI19312
I51758
sI19313
I51265
sI19314
NsI19315
I51185
sI19316
I12570
sI19317
NsI19318
NsI19319
I23969
sI19320
I48137
sI19323
I43611
sI19324
I5769
sI19325
NsI19326
I20375
sI19327
I59791
sI19328
I6661
sI19329
I24586
sI19330
I197288
sI19331
I6661
sI19332
I3215
sI19334
I22773
sI19336
I3582
sI19337
NsI19338
I39704
sI19341
I3320
sI19342
NsI19343
I49402
sI19344
I12322
sI19345
NsI19346
NsI19348
I198370
sI19350
I57280
sI19351
I198288
sI19352
I6848
sI19353
I42666
sI19354
I62275
sI19355
I61189
sI19356
I24895
sI19359
NsI19361
NsI19362
I5602
sI19363
I56641
sI19365
I42927
sI19367
NsI19368
I196735
sI19369
I196810
sI19370
I8412
sI19371
I16242
sI19372
I199524
sI19373
I15894
sI19374
I24768
sI19375
I49788
sI19376
I49071
sI19378
I60422
sI19379
I766
sI19380
I43406
sI19381
I51432
sI19383
I7922
sI19385
I42732
sI19386
NsI19387
I39427
sI19388
NsI19390
I3741
sI19391
I5610
sI19393
I24889
sI19394
I30764
sI19395
I43260
sI19396
I42148
sI19397
I35226
sI19403
I36947
sI19405
NsI19406
NsI19407
I202008
sI19408
NsI19410
I11139
sI19411
I6327
sI19412
I46375
sI19413
I6830
sI19414
I23889
sI19415
I701
sI19416
I27833
sI19417
I14754
sI19419
I3215
sI19420
I109
sI19422
I3269
sI19423
I2614
sI19424
I18881
sI19425
I7765
sI19427
NsI19428
NsI19429
I209
sI19430
I38299
sI19431
NsI19432
I39912
sI19434
I29081
sI19435
NsI19436
I5588
sI19437
I46887
sI19438
I45131
sI19439
I11404
sI19440
NsI19441
I49214
sI19442
I34146
sI19444
NsI19445
I49711
sI19447
NsI19449
I11426
sI19450
I3320
sI19451
I3215
sI19453
I44946
sI19455
NsI19456
I15600
sI19457
I11426
sI19458
I31246
sI19459
I7018
sI19460
I16652
sI19462
I3301
sI19463
I2614
sI19465
I201686
sI19468
I20676
sI19469
I8473
sI19472
I8473
sI19473
I35369
sI19474
I20686
sI19476
I12392
sI19477
NsI19478
NsI19479
I5381
sI19480
I174
sI19481
I32748
sI19482
I7922
sI19486
I5432
sI19490
I29571
sI19491
I577
sI19493
I15991
sI19497
I9198
sI19503
I10013
sI19504
I59441
sI19505
NsI19507
I44567
sI19508
I9198
sI19509
NsI19510
I41095
sI19511
I3303
sI19513
I11318
sI19514
I6910
sI19515
I2514
sI19517
I61438
sI19520
NsI19521
I37608
sI19523
NsI19525
NsI19526
I37537
sI19527
I23265
sI19530
NsI19531
I48362
sI19532
I12874
sI19533
I6871
sI19534
NsI19535
I13005
sI19536
I199125
sI19537
NsI19539
I32204
sI19540
I4323
sI19541
I209
sI19545
NsI19547
I7922
sI19550
I14988
sI19551
I10352
sI19552
NsI19554
I4773
sI19555
I11442
sI19556
I4323
sI19557
I199244
sI19563
I28889
sI19564
I17974
sI19566
I6752
sI19568
I577
sI19569
I702
sI19570
I27929
sI19572
NsI19573
NsI19576
NsI19579
I39544
sI19582
I6128
sI19584
NsI19587
I15895
sI19591
I24691
sI19592
I37608
sI19594
I42810
sI19597
I49788
sI19598
I59414
sI19599
I7922
sI19603
I6830
sI19605
I680
sI19606
NsI19607
NsI19608
NsI19609
I3215
sI19610
I25447
sI19611
I12322
sI19612
I47975
sI19613
NsI19614
NsI19615
NsI19617
NsI19619
I5089
sI19620
I21637
sI19623
I15557
sI19624
I21221
sI19626
NsI19627
I55430
sI19628
NsI19629
NsI19631
I47645
sI19632
I3320
sI19633
I3320
sI19634
I1257
sI19635
I12591
sI19637
I15502
sI19639
NsI19641
I8591
sI19642
I18106
sI19643
I7922
sI19644
I6128
sI19646
I60810
sI19647
I36873
sI19648
I4323
sI19649
I9198
sI19650
I21232
sI19651
I2119
sI19652
NsI19653
I3215
sI19656
I14754
sI19657
I16814
sI19658
I34288
sI19659
NsI19660
I1241
sI19661
I39637
sI19662
I21334
sI19664
I2614
sI19665
I29321
sI19666
I812
sI19667
I2614
sI19668
I35263
sI19669
I51978
sI19671
I12322
sI19672
NsI19675
I48284
sI19676
NsI19677
I62267
sI19678
I2852
sI19679
I1136
sI19680
I42313
sI19681
NsI19682
I33940
sI19683
NsI19685
I9105
sI19687
I41965
sI19688
NsI19689
NsI19691
NsI19693
I28573
sI19694
I1136
sI19695
I15435
sI19696
I8687
sI19698
I24992
sI19699
I31510
sI19700
I9143
sI19701
I8121
sI19702
I1764
sI19703
I5432
sI19704
I9506
sI19705
I16246
sI19706
I24183
sI19709
I13999
sI19710
I45131
sI19711
I16814
sI19712
I1221
sI19713
NsI19714
I198089
sI19715
NsI19717
I855
sI19718
I59682
sI19719
I61098
sI19721
I18106
sI19723
I9143
sI19724
I39184
sI19725
I18822
sI19726
NsI19727
I47998
sI19728
I34984
sI19730
I9198
sI19731
I196965
sI19732
I3243
sI19733
I25248
sI19734
I3549
sI19736
I43754
sI19738
I43561
sI19739
NsI19740
I20723
sI19743
I12687
sI19745
NsI19749
I11342
sI19750
NsI19751
I5089
sI19752
I43754
sI19753
I6706
sI19754
I201155
sI19757
NsI19758
NsI19761
I22773
sI19762
I15557
sI19764
I3269
sI19766
I44327
sI19767
I43754
sI19770
I200174
sI19771
I197019
sI19772
I42005
sI19773
I39439
sI19774
I1103
sI19775
NsI19776
I21404
sI19777
I44124
sI19778
I45014
sI19779
I9198
sI19780
NsI19781
NsI19782
I6830
sI19784
I8364
sI19785
I22773
sI19786
I6830
sI19788
NsI19790
I43561
sI19792
I12392
sI19793
I5617
sI19794
NsI19795
NsI19796
NsI19797
I577
sI19798
I9050
sI19799
NsI19800
I13124
sI19801
I5432
sI19802
I553
sI19803
I39578
sI19804
NsI19805
I201659
sI19806
I553
sI19807
I553
sI19808
NsI19809
I21232
sI19810
I553
sI19811
I553
sI19812
I553
sI19813
I553
sI19815
I3269
sI19816
I41966
sI19817
I553
sI19820
I31027
sI19821
NsI19822
I553
sI19823
I553
sI19824
I553
sI19825
I34779
sI19826
I553
sI19827
I553
sI19829
NsI19830
NsI19831
NsI19832
I553
sI19833
NsI19834
I553
sI19835
I553
sI19836
I553
sI19837
I553
sI19838
I1267
sI19839
I37194
sI19840
I41828
sI19841
NsI19842
NsI19843
I8821
sI19844
I9143
sI19846
I39087
sI19847
I3269
sI19848
I3269
sI19850
NsI19851
NsI19853
I553
sI19854
I13005
sI19855
I9143
sI19856
I5410
sI19858
I49037
sI19861
I3320
sI19862
I12353
sI19863
I9121
sI19864
NsI19865
NsI19866
I5089
sI19867
I21502
sI19869
NsI19870
I21502
sI19871
I34263
sI19872
I3215
sI19873
I5432
sI19874
NsI19875
I3352
sI19876
NsI19880
I6830
sI19881
I6830
sI19882
I3352
sI19884
I553
sI19885
I553
sI19887
I224
sI19888
NsI19890
NsI19891
I553
sI19892
NsI19894
I852
sI19895
I59105
sI19898
I23688
sI19899
NsI19900
I37996
sI19902
I6830
sI19904
I30783
sI19905
I7922
sI19906
I5089
sI19907
I4181
sI19908
I40497
sI19909
NsI19911
I5650
sI19912
I7922
sI19913
NsI19915
I6128
sI19917
I4739
sI19918
I30783
sI19919
I22773
sI19920
I48493
sI19921
I41668
sI19922
I12874
sI19925
I37126
sI19926
I553
sI19927
I6830
sI19928
I37576
sI19929
I17
sI19930
I4773
sI19931
I6079
sI19932
NsI19933
I39554
sI19934
I3215
sI19935
NsI19936
I2586
sI19938
I6124
sI19942
NsI19943
NsI19944
I3215
sI19945
I3265
sI19946
I7922
sI19948
I198357
sI19949
I31549
sI19952
I701
sI19953
I23966
sI19954
I22773
sI19955
I701
sI19956
I20375
sI19957
I33588
sI19958
I30783
sI19960
NsI19961
I4773
sI19963
I22773
sI19964
I8395
sI19966
I7922
sI19967
I20771
sI19968
I56740
sI19969
I60879
sI19970
I18106
sI19971
I9245
sI19972
I17072
sI19973
I1901
sI19975
I20852
sI19976
I6315
sI19977
I48352
sI19978
I23966
sI19979
NsI19983
I56132
sI19984
I37054
sI19985
I5645
sI19986
I42313
sI19989
I9506
sI19990
I34513
sI19994
I33762
sI19996
NsI19997
I49711
sI19998
I10932
sI20000
I19230
sI20001
I48481
sI20002
I44831
sI20003
I2611
sI20004
I20561
sI20005
NsI20007
NsI20008
I29562
sI20009
I60876
sI20012
I39257
sI20013
I25187
sI20015
I49808
sI20016
I559
sI20018
I224
sI20019
I34984
sI20020
I8228
sI20021
I9198
sI20022
I1741
sI20023
I3215
sI20024
I8821
sI20025
I41008
sI20027
I22773
sI20029
NsI20030
I852
sI20033
I8741
sI20034
I21502
sI20036
I12392
sI20037
I8473
sI20038
NsI20040
I9198
sI20041
I8228
sI20044
NsI20047
I3215
sI20049
I3320
sI20052
I16188
sI20053
I41307
sI20056
I260
sI20057
I5786
sI20060
I553
sI20061
I6739
sI20065
I49847
sI20066
I41937
sI20067
I43566
sI20068
I24822
sI20069
I852
sI20070
I12145
sI20071
I59891
sI20072
I3269
sI20073
I51629
sI20074
I3215
sI20078
NsI20081
NsI20084
I17501
sI20089
I3549
sI20091
I8402
sI20092
I48441
sI20093
I9260
sI20094
I62189
sI20096
I4613
sI20098
NsI20102
I719
sI20103
I12392
sI20106
I50989
sI20107
I8990
sI20110
I39427
sI20111
I9198
sI20118
I12312
sI20119
I23007
sI20120
I6830
sI20121
I50324
sI20123
I8426
sI20126
I3265
sI20127
I6830
sI20128
I57188
sI20130
I20849
sI20132
I7922
sI20134
I7922
sI20135
I20902
sI20136
I3352
sI20137
I3491
sI20138
I28573
sI20140
NsI20141
I45031
sI20143
I3491
sI20144
I42189
sI20145
I12350
sI20146
I15557
sI20148
I6703
sI20151
I3491
sI20153
I5588
sI20160
I35558
sI20161
I16086
sI20162
NsI20164
NsI20165
I45170
sI20166
I20312
sI20167
I21826
sI20170
I6830
sI20172
I31669
sI20174
I201644
sI20175
I5410
sI20176
I3491
sI20178
NsI20180
I9143
sI20182
I12145
sI20184
I20001
sI20185
NsI20186
I5645
sI20187
I3269
sI20188
I59
sI20189
I6848
sI20190
I58054
sI20191
I3292
sI20192
I11342
sI20193
I5483
sI20194
I14080
sI20195
I9143
sI20196
NsI20197
I43542
sI20199
I31334
sI20200
NsI20203
I15557
sI20204
I5466
sI20205
I719
sI20206
I12350
sI20207
I49835
sI20208
I25156
sI20210
I12322
sI20211
NsI20214
I197551
sI20215
NsI20217
I24848
sI20218
I60687
sI20219
NsI20220
I39120
sI20221
NsI20225
I3215
sI20226
I12322
sI20227
I5396
sI20228
NsI20230
I12874
sI20231
I9198
sI20233
I5410
sI20234
I20647
sI20238
NsI20240
I7922
sI20244
I51996
sI20246
I3215
sI20247
I42102
sI20248
I43754
sI20250
I31334
sI20252
NsI20253
I4739
sI20255
I28220
sI20256
I6830
sI20257
I3320
sI20259
I12559
sI20261
I41998
sI20262
I15397
sI20263
I6830
sI20264
I198290
sI20265
NsI20266
I12322
sI20267
I35130
sI20269
NsI20272
I19764
sI20273
I4508
sI20274
NsI20275
I22925
sI20277
I57407
sI20278
I3265
sI20279
I17732
sI20282
I5650
sI20284
NsI20285
NsI20286
I2119
sI20288
NsI20289
I786
sI20290
I13189
sI20291
I12322
sI20292
I201873
sI20294
NsI20295
I12322
sI20296
I43754
sI20297
I43754
sI20298
NsI20299
I29695
sI20301
I2602
sI20302
I3265
sI20303
I6855
sI20305
I43754
sI20307
I43754
sI20313
I16125
sI20315
I55581
sI20318
I271
sI20319
NsI20320
NsI20321
I9198
sI20322
I6939
sI20324
I3265
sI20325
I44444
sI20326
I9143
sI20329
I25091
sI20331
NsI20332
NsI20334
I8764
sI20336
I39097
sI20338
I48438
sI20341
NsI20342
I559
sI20343
I3215
sI20345
I13037
sI20346
I35332
sI20347
I3549
sI20350
I29208
sI20352
I4685
sI20353
I31272
sI20354
I8767
sI20355
NsI20356
I59779
sI20357
I42003
sI20358
I701
sI20359
I2119
sI20360
I35540
sI20361
I43284
sI20362
I198499
sI20364
NsI20366
I13110
sI20368
I13127
sI20369
I6805
sI20371
I43754
sI20372
I15685
sI20374
I2516
sI20375
NsI20376
I3215
sI20378
NsI20379
I196900
sI20381
I33871
sI20383
I29518
sI20384
I15576
sI20385
I47902
sI20387
I4812
sI20388
I6799
sI20389
I12874
sI20392
I37671
sI20393
I9790
sI20394
I2856
sI20397
I43754
sI20398
I12353
sI20399
I12479
sI20400
I786
sI20402
I61287
sI20404
I25543
sI20405
I8468
sI20407
I4766
sI20409
I24642
sI20410
I38229
sI20411
NsI20412
NsI20413
I719
sI20415
I13193
sI20416
I197036
sI20417
I38229
sI20418
I701
sI20419
I57951
sI20421
I38229
sI20422
NsI20423
I52458
sI20426
I577
sI20429
I50702
sI20430
I59789
sI20431
I7018
sI20432
I786
sI20433
NsI20435
NsI20437
I3303
sI20438
I8251
sI20439
I21412
sI20440
I8612
sI20442
I29222
sI20443
I199441
sI20444
I2856
sI20445
NsI20446
I31461
sI20447
I13657
sI20449
I132045
sI20450
I2514
sI20451
I855
sI20452
I559
sI20453
I7922
sI20454
I15435
sI20455
I14754
sI20456
I13167
sI20458
I2613
sI20460
I33874
sI20461
I20545
sI20462
NsI20464
I60227
sI20466
I5607
sI20467
I9166
sI20468
I39702
sI20470
NsI20471
I24909
sI20472
I8636
sI20474
I59944
sI20476
I31241
sI20477
I38229
sI20478
I60022
sI20479
I786
sI20482
I28685
sI20483
NsI20484
I9158
sI20485
I9269
sI20487
I47537
sI20488
I5769
sI20489
I197157
sI20491
I6830
sI20492
I31221
sI20493
I11351
sI20495
I41095
sI20498
I9031
sI20499
I6830
sI20503
I18420
sI20506
I12315
sI20509
NsI20511
I6830
sI20512
I24167
sI20513
NsI20515
I29208
sI20517
I47236
sI20519
I852
sI20520
I24904
sI20522
I852
sI20523
I2848
sI20524
NsI20525
NsI20526
I9506
sI20527
NsI20529
NsI20530
NsI20531
I3249
sI20533
I38932
sI20534
I51906
sI20535
NsI20536
NsI20537
NsI20538
I8468
sI20539
NsI20541
NsI20542
I28716
sI20543
I5769
sI20544
I5617
sI20546
NsI20547
NsI20549
NsI20550
NsI20551
I5610
sI20552
NsI20553
I200114
sI20556
I5610
sI20557
I50825
sI20558
NsI20560
I5588
sI20561
I47227
sI20562
NsI20564
NsI20565
I201522
sI20566
I12844
sI20567
I21385
sI20569
I7922
sI20572
NsI20573
I39396
sI20575
NsI20576
I5588
sI20577
I57642
sI20578
I3215
sI20579
I2856
sI20582
I197895
sI20583
NsI20584
I29314
sI20585
I5432
sI20586
NsI20587
NsI20588
I5610
sI20589
I49024
sI20590
I3320
sI20591
I43975
sI20594
I12322
sI20596
I9031
sI20597
I42220
sI20598
I5610
sI20599
I786
sI20601
I7922
sI20602
I5466
sI20603
I7922
sI20605
I3320
sI20606
I40788
sI20607
I35807
sI20608
I5466
sI20609
I21570
sI20611
NsI20612
I16218
sI20614
I19108
sI20615
I13657
sI20616
NsI20617
NsI20618
I4007
sI20619
I3215
sI20621
I4773
sI20623
I48364
sI20625
NsI20627
I49717
sI20628
I577
sI20629
I3215
sI20630
I28573
sI20631
I34154
sI20633
NsI20636
I59659
sI20637
I13037
sI20639
I7922
sI20642
NsI20643
NsI20644
I48220
sI20646
I51489
sI20647
NsI20648
I198499
sI20649
I20750
sI20651
I31595
sI20652
NsI20653
I28573
sI20654
NsI20657
I57507
sI20658
I5466
sI20660
I37187
sI20661
I12670
sI20662
I3269
sI20664
NsI20666
I34984
sI20667
I33885
sI20669
I39544
sI20670
I15962
sI20673
I61343
sI20674
I34106
sI20675
NsI20676
NsI20677
I29404
sI20678
I28716
sI20679
NsI20680
I1136
sI20681
I30786
sI20683
I7922
sI20687
NsI20688
I15738
sI20691
NsI20692
I13977
sI20693
I25352
sI20694
NsI20695
I31124
sI20696
NsI20698
NsI20699
I15965
sI20701
I51159
sI20702
I43531
sI20704
I51349
sI20705
I8241
sI20706
I60187
sI20707
I6898
sI20708
NsI20709
I15544
sI20710
I73
sI20711
I6739
sI20713
I29504
sI20715
I197729
sI20716
I15544
sI20717
I197046
sI20718
I9063
sI20719
I199524
sI20720
NsI20721
I158
sI20723
NsI20724
I7385
sI20725
I7018
sI20726
NsI20727
I29194
sI20731
I201155
sI20733
I852
sI20734
I7922
sI20736
I6661
sI20738
I13110
sI20739
I7922
sI20740
I46375
sI20741
I12715
sI20742
I201868
sI20743
I2119
sI20744
NsI20745
I5602
sI20749
I31213
sI20750
I45903
sI20751
I3215
sI20752
I21570
sI20753
I19653
sI20755
I28854
sI20756
I33588
sI20757
I12319
sI20758
I59
sI20759
I7922
sI20761
I6823
sI20762
I62402
sI20765
I7922
sI20767
I2119
sI20769
I57193
sI20770
I6830
sI20771
I43727
sI20772
NsI20774
NsI20775
I680
sI20776
I5391
sI20777
I9299
sI20778
I174
sI20779
NsI20780
I12513
sI20781
I7922
sI20782
I1759
sI20783
I15502
sI20784
NsI20785
I42337
sI20787
I31736
sI20788
I3292
sI20789
NsI20790
NsI20791
I7922
sI20792
I20677
sI20793
NsI20794
I701
sI20795
I34622
sI20796
I46019
sI20797
I13030
sI20802
I11524
sI20803
NsI20808
I3320
sI20812
NsI20813
I63311
sI20814
I24560
sI20817
NsI20818
I21341
sI20819
I8708
sI20820
I4766
sI20822
I4766
sI20825
I1221
sI20828
I8758
sI20829
I17858
sI20831
NsI20833
I5645
sI20839
I39544
sI20840
I35911
sI20841
I13657
sI20843
I39544
sI20844
NsI20845
I4766
sI20846
NsI20848
I39544
sI20852
I39544
sI20853
NsI20854
I39544
sI20857
I21775
sI20865
I39544
sI20867
I13657
sI20872
I6799
sI20874
I31337
sI20875
I1916
sI20877
I262700
sI20879
I6848
sI20880
I8468
sI20882
I6848
sI20883
I262691
sI20892
I28683
sI20893
I9503
sI20895
I132599
sI20896
I131743
sI20897
NsI20898
I11830
sI20899
I27775
sI20902
I16637
sI20904
I42148
sI20906
I24218
sI20907
I9790
sI20909
NsI20912
I9503
sI20913
I701
sI20916
I6830
sI20918
I4771
sI20919
I44491
sI20922
I28885
sI20925
I43754
sI20935
I8744
sI20937
I6866
sI20939
I1213
sI20948
I47589
sI20953
I42708
sI20954
I5384
sI20955
I8402
sI20956
NsI20958
I28885
sI20961
I29385
sI20964
I42961
sI20970
I44234
sI20971
I28885
sI20973
I58328
sI20974
I16367
sI20975
I56933
sI20978
I12905
sI20980
I43801
sI20981
I37517
sI20983
I42253
sI20985
I56911
sI20986
I8193
sI20989
NsI20991
I8887
sI20994
I1267
sI20995
I6661
sI21001
I393249
sI21002
NsI21003
I209
sI21005
NsI21007
NsI21008
I19518
sI21009
I852
sI21014
I6400
sI21015
I45637
sI21016
NsI21018
I45705
sI21019
I38800
sI21020
I262184
sI21021
I27925
sI21023
I11404
sI21026
I7420
sI21028
I7922
sI21030
I7922
sI21031
I33588
sI21035
I33894
sI21039
I43957
sI21042
I10131
sI21043
I199782
sI21044
I4787
sI21045
I38778
sI21046
NsI21047
I45475
sI21048
I23951
sI21050
I132255
sI21051
I6568
sI21052
I17996
sI21055
NsI21057
I5563
sI21062
I49342
sI21064
NsI21067
I45786
sI21068
I56099
sI21069
I9433
sI21070
NsI21071
I38740
sI21072
NsI21073
I4771
sI21074
I7922
sI21075
I9241
sI21076
I23944
sI21078
I59244
sI21080
NsI21081
NsI21083
I23947
sI21085
I25184
sI21086
I680
sI21087
I46375
sI21089
I4812
sI21092
I17970
sI21093
I24079
sI21094
NsI21095
NsI21096
I133334
sI21097
I6400
sI21099
I4775
sI21102
NsI21105
I8764
sI21106
NsI21107
I56241
sI21109
NsI21110
NsI21112
I11170
sI21113
I42610
sI21115
NsI21116
I44267
sI21117
I45304
sI21119
I7922
sI21120
I37100
sI21122
I15290
sI21123
I6079
sI21125
I7922
sI21126
I40191
sI21127
I2497
sI21129
I6908
sI21130
I4323
sI21132
NsI21133
I13672
sI21134
NsI21137
I11404
sI21139
I12684
sI21140
I38896
sI21143
NsI21144
NsI21145
I7922
sI21149
I11830
sI21151
NsI21152
I7922
sI21153
NsI21154
I49847
sI21155
NsI21158
I10131
sI21159
I24390
sI21161
NsI21162
I27887
sI21165
I9299
sI21167
I9050
sI21168
NsI21170
I28573
sI21172
NsI21173
I17622
sI21175
I4713
sI21177
NsI21178
NsI21180
I58757
sI21181
I22047
sI21182
NsI21186
NsI21189
NsI21190
I209
sI21191
I56288
sI21192
I33363
sI21193
I9105
sI21194
NsI21195
I209
sI21196
I209
sI21197
I18001
sI21199
I15772
sI21200
I12322
sI21202
I198230
sI21203
NsI21204
I3269
sI21205
NsI21207
I198296
sI21208
I6848
sI21209
I2200
sI21210
I6830
sI21211
NsI21213
NsI21216
I5610
sI21217
NsI21220
I3269
sI21221
I57469
sI21225
NsI21226
NsI21227
I15930
sI21228
I13030
sI21229
I3269
sI21230
I201701
sI21231
NsI21233
I29305
sI21234
I39375
sI21235
I16242
sI21236
I39560
sI21239
I42673
sI21240
I3269
sI21241
I3303
sI21242
I2860
sI21243
I12874
sI21244
I5377
sI21245
I25375
sI21246
I199547
sI21247
NsI21248
I3209
sI21249
I29107
sI21250
NsI21251
I3352
sI21252
I8285
sI21253
NsI21254
NsI21255
NsI21256
I1241
sI21258
NsI21259
NsI21260
I60156
sI21261
I3269
sI21263
I6830
sI21264
I13030
sI21265
I3269
sI21266
NsI21268
NsI21269
I57300
sI21271
I25487
sI21272
I49640
sI21273
I1267
sI21274
I3269
sI21275
I200675
sI21276
NsI21277
I6830
sI21279
I1241
sI21280
I6805
sI21281
NsI21282
I59970
sI21283
I61211
sI21284
I21348
sI21285
I43437
sI21286
I20811
sI21287
I12322
sI21288
NsI21289
NsI21290
I51417
sI21291
I199723
sI21292
I35632
sI21294
NsI21295
I59752
sI21296
I57154
sI21297
NsI21299
I197540
sI21300
I33922
sI21301
I3269
sI21302
I15535
sI21303
I3303
sI21304
NsI21305
I5381
sI21306
I29484
sI21307
NsI21308
I60294
sI21309
I49455
sI21311
NsI21312
I24904
sI21313
I15557
sI21315
I16245
sI21316
I62023
sI21319
I16191
sI21320
I48797
sI21321
I3320
sI21323
I25512
sI21324
I3215
sI21325
NsI21327
I2856
sI21328
I5466
sI21329
NsI21331
I20712
sI21332
I15377
sI21333
I15415
sI21336
I16082
sI21337
I199662
sI21339
I6830
sI21340
NsI21342
NsI21344
I200925
sI21345
I786
sI21346
I35684
sI21347
I3215
sI21349
I62365
sI21350
I56478
sI21351
I34442
sI21352
I39554
sI21354
I12322
sI21357
I20712
sI21358
I13037
sI21359
I6830
sI21360
I6830
sI21361
I31669
sI21363
I6830
sI21364
I3320
sI21365
NsI21366
I6830
sI21369
I3215
sI21370
I4826
sI21372
NsI21373
I786
sI21374
I34245
sI21376
I20712
sI21377
I3269
sI21378
I7922
sI21379
I13285
sI21380
I2856
sI21382
I4589
sI21383
I5089
sI21384
NsI21385
I3209
sI21389
I12715
sI21390
I34970
sI21391
I62416
sI21393
I6703
sI21394
I12322
sI21395
I37282
sI21398
I198864
sI21400
I12874
sI21401
NsI21402
I8447
sI21403
I34863
sI21404
I12353
sI21405
NsI21406
I553
sI21408
I25255
sI21409
I3320
sI21410
NsI21411
I34878
sI21412
I553
sI21413
NsI21414
I51395
sI21416
I34372
sI21417
I553
sI21418
NsI21420
NsI21421
NsI21422
NsI21423
I29252
sI21424
I553
sI21425
NsI21426
NsI21427
I553
sI21428
NsI21429
NsI21430
NsI21432
I57118
sI21433
I2860
sI21434
I25255
sI21435
NsI21436
NsI21437
I49071
sI21438
I12322
sI21440
I9105
sI21441
NsI21442
I15517
sI21443
I8866
sI21444
NsI21445
I60522
sI21446
I34878
sI21447
I8559
sI21448
NsI21449
I6830
sI21451
I202078
sI21452
I31246
sI21453
NsI21455
I21430
sI21456
NsI21457
NsI21458
I56588
sI21460
NsI21461
I5089
sI21463
NsI21464
NsI21465
I8445
sI21468
I3269
sI21470
I553
sI21471
I3303
sI21472
I3269
sI21473
I3320
sI21474
I29314
sI21475
I8445
sI21476
NsI21477
I43956
sI21478
NsI21479
I29695
sI21481
I12392
sI21482
I21232
sI21483
I6830
sI21484
NsI21486
I30722
sI21487
I34087
sI21488
I224
sI21489
I31214
sI21493
I3216
sI21494
I12322
sI21495
I1267
sI21496
NsI21497
I5610
sI21499
I553
sI21500
I47834
sI21501
NsI21502
I3320
sI21503
I49455
sI21504
I6830
sI21505
I786
sI21508
I2611
sI21509
NsI21510
I8374
sI21511
NsI21512
I6866
sI21513
I6830
sI21514
I29056
sI21515
I8447
sI21516
I3269
sI21517
I3215
sI21520
I5769
sI21521
I3303
sI21522
NsI21524
I44684
sI21526
I5607
sI21527
NsI21528
NsI21529
I5432
sI21530
I553
sI21531
I6830
sI21534
I5410
sI21535
NsI21536
I15557
sI21537
I8612
sI21539
NsI21540
I3215
sI21541
I8896
sI21542
I198930
sI21544
I12350
sI21545
I24764
sI21549
NsI21552
I224
sI21554
I41937
sI21557
I553
sI21558
I5432
sI21563
I50166
sI21564
I3269
sI21566
I8439
sI21567
I5410
sI21568
I3209
sI21569
I553
sI21570
I29119
sI21571
I553
sI21572
I553
sI21573
NsI21574
NsI21575
I29562
sI21576
I553
sI21577
I224
sI21578
I12392
sI21579
I12392
sI21580
I1930
sI21581
I48155
sI21582
I224
sI21586
NsI21587
I12322
sI21588
I12835
sI21589
NsI21591
NsI21592
I50324
sI21593
NsI21595
I9031
sI21597
I12322
sI21598
I6830
sI21599
NsI21600
I22394
sI21607
I36890
sI21609
I2119
sI21610
I37336
sI21614
I52431
sI21615
NsI21617
I9875
sI21620
NsI21624
I23688
sI21625
I4826
sI21630
I7922
sI21632
I36991
sI21633
I55915
sI21634
I37090
sI21635
NsI21638
I38565
sI21639
NsI21640
I5089
sI21642
NsI21644
I17501
sI21646
I35613
sI21648
I6830
sI21651
NsI21652
I5432
sI21653
I42313
sI21656
I15895
sI21657
I12353
sI21658
I8821
sI21659
NsI21660
I27839
sI21662
I12389
sI21663
I42313
sI21664
I21552
sI21674
I3320
sI21675
I7922
sI21676
I4528
sI21681
I8308
sI21682
I37611
sI21686
I49048
sI21687
I15659
sI21690
I1136
sI21692
I9443
sI21695
I9443
sI21697
I6057
sI21698
I37010
sI21699
I27843
sI21700
I7922
sI21702
I57820
sI21703
I56099
sI21704
I28573
sI21705
I45595
sI21710
I49779
sI21713
I17660
sI21714
I4768
sI21715
NsI21718
I17974
sI21719
I9503
sI21720
I13037
sI21723
I4788
sI21724
I13188
sI21725
I133185
sI21726
I8477
sI21727
I6830
sI21729
I12715
sI21733
I44746
sI21735
I51038
sI21739
I15673
sI21740
I36903
sI21747
NsI21748
I6830
sI21750
I42313
sI21751
NsI21753
NsI21754
I45595
sI21757
I4768
sI21758
I23696
sI21760
I9534
sI21761
I701
sI21762
I200888
sI21765
I17660
sI21767
NsI21770
NsI21771
I17660
sI21772
NsI21775
I34456
sI21776
I62282
sI21780
NsI21781
I11351
sI21782
I6830
sI21783
I39611
sI21784
I132599
sI21785
I3269
sI21787
NsI21790
NsI21791
I2381
sI21793
I9143
sI21797
I9050
sI21798
I2
sI21799
I12543
sI21802
I11404
sI21806
I7922
sI21807
NsI21811
I7642
sI21812
I56055
sI21814
I20712
sI21815
I44096
sI21818
I38195
sI21819
I9143
sI21821
NsI21823
I16276
sI21824
I6830
sI21825
I16353
sI21829
I5615
sI21831
I25596
sI21832
I10631
sI21833
I56300
sI21834
I52257
sI21835
I7545
sI21837
I5690
sI21839
NsI21842
I12871
sI21846
I2856
sI21847
I12997
sI21848
I4773
sI21849
I24198
sI21851
I48166
sI21853
I62429
sI21856
I17660
sI21857
I17660
sI21859
I8905
sI21860
I4771
sI21863
I32365
sI21864
I7922
sI21865
I11404
sI21866
NsI21867
I6830
sI21868
I201701
sI21869
I1267
sI21870
I18881
sI21873
I3215
sI21877
I8228
sI21878
I5615
sI21882
I58782
sI21887
NsI21888
I9506
sI21890
I7049
sI21892
I28685
sI21893
I12714
sI21894
I41833
sI21895
I27699
sI21896
I264608
sI21900
I11426
sI21903
I12179
sI21905
I30036
sI21907
I55850
sI21909
I4768
sI21916
I2514
sI21922
I17660
sI21924
I4804
sI21926
I6830
sI21927
I2860
sI21928
I197999
sI21930
I34695
sI21931
I3320
sI21932
I3269
sI21934
I56478
sI21944
I17501
sI21947
I6830
sI21949
NsI21950
I8412
sI21951
I48279
sI21955
I8365
sI21956
I15725
sI21957
I12322
sI21958
I3265
sI21959
I42442
sI21962
I34373
sI21965
I5610
sI21966
I34245
sI21967
I3303
sI21970
I3243
sI21971
I4739
sI21973
I61094
sI21976
NsI21978
I7477
sI21979
I5615
sI21980
I3320
sI21981
I18881
sI21982
I3269
sI21983
I3215
sI21985
I1916
sI21986
I27983
sI21987
I37090
sI21989
I43061
sI21990
I12322
sI21991
I15557
sI21994
I42442
sI21995
I5409
sI21997
I44994
sI21998
I42557
sI21999
I6830
sI22001
I9121
sI22002
I2856
sI22003
I3269
sI22004
NsI22005
NsI22006
I6830
sI22007
I34779
sI22009
I13037
sI22010
I29562
sI22011
I12322
sI22012
I12874
sI22015
I31655
sI22016
I29314
sI22017
I43171
sI22018
I59758
sI22019
NsI22020
NsI22022
I3292
sI22023
I13030
sI22024
NsI22025
I6866
sI22026
I31493
sI22027
I6830
sI22028
I2856
sI22029
I197301
sI22030
I42541
sI22031
I197853
sI22032
I39886
sI22033
I199231
sI22034
I3215
sI22036
I56478
sI22038
I6830
sI22040
NsI22041
I3269
sI22042
I35518
sI22043
I6848
sI22047
I1133
sI22048
I1267
sI22049
I9070
sI22050
NsI22051
I3303
sI22052
I9008
sI22053
NsI22054
I3320
sI22055
I3320
sI22056
NsI22057
NsI22058
I24641
sI22059
I41696
sI22060
NsI22061
NsI22062
I2529
sI22063
NsI22064
I60009
sI22065
I3215
sI22067
NsI22068
I719
sI22069
I21173
sI22070
I20115
sI22071
I50897
sI22073
I5089
sI22074
I3269
sI22076
I12301
sI22077
I6830
sI22078
NsI22079
I15965
sI22080
I3269
sI22081
NsI22082
NsI22084
I15693
sI22085
I12322
sI22087
NsI22089
NsI22090
NsI22091
I31477
sI22092
NsI22093
I6830
sI22096
I2200
sI22098
NsI22099
NsI22100
I553
sI22105
I13030
sI22106
I1241
sI22107
I13030
sI22108
I3303
sI22109
I553
sI22110
I6830
sI22111
I25255
sI22112
I12353
sI22113
I9143
sI22114
NsI22115
I3320
sI22116
I5410
sI22118
NsI22120
NsI22121
NsI22123
I3320
sI22124
NsI22125
I201494
sI22126
I20676
sI22127
I3320
sI22129
I10796
sI22130
I16814
sI22131
I6855
sI22132
I59761
sI22133
NsI22134
I2119
sI22135
I3269
sI22136
I24889
sI22137
I5432
sI22138
I2611
sI22141
I25375
sI22144
I3269
sI22145
I201852
sI22146
I39151
sI22150
I8612
sI22151
I12570
sI22152
I553
sI22154
I13046
sI22155
I39651
sI22156
I3320
sI22158
I44581
sI22162
NsI22163
I6830
sI22164
I15895
sI22166
NsI22167
NsI22168
I5391
sI22169
NsI22170
I12322
sI22171
I8228
sI22172
I21502
sI22173
I3269
sI22174
I3301
sI22178
I29314
sI22181
NsI22182
I8228
sI22184
NsI22185
I12322
sI22186
I6871
sI22188
I57795
sI22189
I44641
sI22195
I6830
sI22196
NsI22197
NsI22198
NsI22199
I7922
sI22200
I8632
sI22201
I23756
sI22202
I5483
sI22203
I203953
sI22204
I12353
sI22205
I37090
sI22207
I49605
sI22209
I200925
sI22212
I29462
sI22215
I36866
sI22216
I37184
sI22217
I6830
sI22221
I37153
sI22222
I36873
sI22228
I5432
sI22231
I13041
sI22233
I12353
sI22234
I25255
sI22235
I37090
sI22236
I852
sI22237
I559
sI22241
I5769
sI22242
I133481
sI22243
I852
sI22244
I4134
sI22245
I852
sI22247
I6830
sI22250
I17884
sI22252
I37153
sI22255
I6830
sI22256
I48173
sI22257
I20621
sI22258
I25255
sI22260
I25106
sI22265
I852
sI22268
I5089
sI22270
I852
sI22271
I852
sI22272
I17974
sI22273
I197021
sI22275
I44788
sI22278
I59455
sI22279
I10143
sI22280
NsI22281
I1221
sI22283
I9503
sI22285
I12714
sI22286
NsI22287
NsI22288
I7922
sI22291
I41397
sI22294
I29413
sI22295
I15557
sI22296
I3269
sI22300
I4826
sI22302
I3215
sI22303
I55850
sI22305
I34779
sI22307
NsI22308
NsI22309
I6739
sI22310
I6830
sI22311
I12353
sI22312
I25255
sI22316
I15368
sI22319
I13092
sI22320
I35141
sI22322
I201860
sI22326
I5603
sI22328
I57961
sI22331
NsI22332
I43451
sI22333
I31334
sI22334
NsI22335
I51728
sI22336
I9605
sI22338
I3352
sI22339
I3320
sI22340
I4766
sI22341
I199813
sI22344
I3265
sI22349
I49719
sI22353
I6830
sI22357
NsI22358
I3269
sI22363
I9125
sI22365
I31042
sI22369
I5432
sI22370
I12322
sI22371
I3265
sI22372
I12322
sI22373
I6830
sI22374
I9105
sI22375
I812
sI22376
I41103
sI22377
I3320
sI22379
I7922
sI22380
I6805
sI22381
I4847
sI22382
I22773
sI22383
I47394
sI22386
I8767
sI22387
I4847
sI22388
I9824
sI22392
I29287
sI22393
I55430
sI22394
I16305
sI22395
NsI22396
I7922
sI22399
I17523
sI22400
I51440
sI22402
I60323
sI22403
NsI22404
NsI22405
I41877
sI22406
NsI22407
I1103
sI22409
I45600
sI22410
NsI22411
NsI22412
I2847
sI22413
I137
sI22414
I3320
sI22415
I13046
sI22416
NsI22417
NsI22418
I134416
sI22419
NsI22420
NsI22421
I2121
sI22422
NsI22423
NsI22424
I6830
sI22425
I5432
sI22426
NsI22427
I6830
sI22428
I15557
sI22429
I12322
sI22431
I41095
sI22432
NsI22433
I42189
sI22434
NsI22435
I20914
sI22436
I40076
sI22437
I174
sI22438
I24691
sI22441
I42490
sI22442
I20115
sI22444
I6360
sI22445
NsI22446
NsI22447
I7922
sI22448
NsI22449
I31229
sI22450
I13092
sI22452
I13901
sI22455
I6830
sI22457
I5432
sI22459
NsI22460
NsI22461
I51395
sI22464
I38949
sI22466
I28908
sI22467
I31042
sI22469
NsI22470
I16276
sI22471
I17639
sI22473
NsI22475
I5089
sI22476
I12565
sI22477
NsI22478
I41088
sI22479
I50825
sI22480
I12322
sI22484
I43205
sI22485
I44327
sI22487
I42160
sI22488
I3292
sI22489
NsI22490
I38635
sI22491
I3221
sI22492
I34362
sI22495
NsI22496
I3221
sI22497
NsI22498
NsI22500
I5610
sI22501
NsI22502
I6830
sI22503
NsI22504
I8708
sI22505
I2833
sI22507
I12423
sI22510
I23007
sI22511
I11426
sI22513
NsI22515
NsI22516
I137
sI22518
NsI22520
I3221
sI22522
I8346
sI22524
I15435
sI22525
NsI22526
NsI22527
I30722
sI22528
I137
sI22530
I6360
sI22531
I8512
sI22532
NsI22533
I3320
sI22535
I6830
sI22536
I13030
sI22539
I41164
sI22540
NsI22542
I28859
sI22543
NsI22545
I1267
sI22546
NsI22547
NsI22550
I51401
sI22551
NsI22555
I8612
sI22556
I48072
sI22557
I8473
sI22558
I3209
sI22559
I199661
sI22560
I3320
sI22561
NsI22563
NsI22564
I3269
sI22565
I29695
sI22566
NsI22568
I3314
sI22571
I3215
sI22572
NsI22573
I6830
sI22574
NsI22575
I5089
sI22577
NsI22578
I31246
sI22581
I6830
sI22582
NsI22583
I1136
sI22584
NsI22585
I29208
sI22586
I31042
sI22589
NsI22591
I6830
sI22592
I1955
sI22593
NsI22594
NsI22596
I20001
sI22597
NsI22600
NsI22602
NsI22603
I58381
sI22605
NsI22606
NsI22608
I701
sI22609
I58445
sI22611
I11131
sI22612
NsI22614
NsI22616
I6697
sI22617
I38229
sI22620
I11426
sI22624
NsI22625
I5607
sI22626
I20115
sI22628
I25372
sI22629
NsI22630
I7922
sI22631
I8430
sI22632
I39611
sI22633
NsI22635
I8997
sI22637
NsI22638
I18200
sI22639
I3605
sI22640
I134180
sI22642
I52191
sI22643
I24680
sI22644
I23674
sI22645
I4768
sI22646
NsI22647
NsI22648
I12883
sI22649
I12883
sI22651
I7470
sI22652
I17974
sI22653
I209
sI22654
NsI22657
NsI22659
NsI22660
I2856
sI22661
I58704
sI22662
I131995
sI22663
NsI22665
I132079
sI22666
I18119
sI22668
I9246
sI22669
I18200
sI22671
I9790
sI22672
I3356
sI22673
NsI22674
I2856
sI22675
I23033
sI22676
I8788
sI22677
I9790
sI22678
NsI22679
NsI22680
I43234
sI22681
I45650
sI22684
I201952
sI22686
I45903
sI22687
I12883
sI22688
NsI22689
I38229
sI22690
I12883
sI22691
NsI22692
I15895
sI22693
NsI22695
I8749
sI22696
I5650
sI22698
I11340
sI22699
NsI22700
NsI22701
I17480
sI22702
I27699
sI22706
I31148
sI22708
NsI22709
I7922
sI22710
I20001
sI22711
I28884
sI22712
I24873
sI22713
NsI22714
NsI22715
I7922
sI22717
I20001
sI22720
I701
sI22722
NsI22723
I6128
sI22724
I4773
sI22725
NsI22730
NsI22731
I7922
sI22732
I38592
sI22733
I45177
sI22734
I24006
sI22735
I3277
sI22736
I7922
sI22737
I9471
sI22738
I12083
sI22744
I55423
sI22745
I9246
sI22746
NsI22747
NsI22748
NsI22749
I58656
sI22750
I32584
sI22751
I3605
sI22753
NsI22755
I23655
sI22756
NsI22757
NsI22758
I7922
sI22759
I2856
sI22760
I38456
sI22761
I10131
sI22763
NsI22764
I6327
sI22765
I9299
sI22767
I34875
sI22768
NsI22769
I4771
sI22772
I42313
sI22774
NsI22776
I5089
sI22777
I48293
sI22778
I46672
sI22779
I2856
sI22780
I20631
sI22781
NsI22782
I44843
sI22784
I60015
sI22785
I6830
sI22788
I15510
sI22789
I47165
sI22790
NsI22791
I56478
sI22793
I45528
sI22797
I701
sI22798
I55430
sI22799
NsI22802
I209
sI22804
I38442
sI22805
NsI22806
I203457
sI22810
NsI22812
I198977
sI22813
I56200
sI22814
I7922
sI22815
I174
sI22819
I41691
sI22820
I58473
sI22822
I4713
sI22823
I21479
sI22824
I3265
sI22825
NsI22828
I2518
sI22834
I23657
sI22836
I12353
sI22839
I50673
sI22840
I60690
sI22844
I29462
sI22845
I24390
sI22848
I7922
sI22849
I6830
sI22853
I7922
sI22854
I199524
sI22858
I18451
sI22859
I51057
sI22860
I577
sI22861
I28685
sI22862
I4713
sI22863
I198936
sI22864
NsI22865
NsI22866
NsI22867
I8473
sI22868
I12353
sI22869
I51865
sI22870
I19165
sI22871
NsI22872
I34659
sI22873
I197076
sI22874
I8228
sI22875
I199221
sI22876
NsI22878
I4771
sI22879
I6830
sI22880
I26088
sI22888
I9038
sI22890
I3265
sI22891
I28905
sI22892
I12322
sI22893
I21476
sI22894
I2119
sI22895
I1764
sI22896
I50266
sI22897
I34410
sI22898
I199135
sI22899
I62290
sI22900
NsI22903
NsI22905
I6830
sI22906
I34081
sI22908
I2119
sI22910
I15623
sI22911
I49981
sI22912
NsI22913
I1955
sI22914
I13127
sI22915
I15516
sI22916
I49420
sI22917
I22085
sI22918
I12322
sI22919
NsI22920
NsI22923
NsI22925
NsI22928
NsI22931
NsI22933
I36903
sI22934
I2856
sI22935
I42960
sI22936
NsI22937
I49724
sI22938
I132905
sI22939
I4775
sI22940
NsI22942
I7922
sI22943
NsI22944
I27775
sI22945
I20523
sI22948
I23944
sI22950
I8422
sI22952
I202089
sI22954
I30781
sI22955
I41242
sI22957
NsI22958
I3215
sI22959
I6848
sI22960
NsI22961
I9208
sI22962
I50673
sI22964
I3292
sI22965
I35515
sI22966
NsI22967
I6848
sI22968
NsI22969
NsI22970
I42560
sI22971
I200155
sI22972
I16364
sI22974
NsI22975
I35612
sI22976
I25058
sI22978
NsI22979
I5396
sI22980
I28760
sI22981
I3320
sI22982
NsI22983
I1136
sI22984
I199218
sI22985
I3320
sI22986
I6830
sI22987
I1267
sI22988
NsI22990
I8608
sI22991
I47544
sI22992
I61984
sI22993
I3308
sI22994
I12844
sI22995
I15699
sI22996
NsI22997
I197288
sI22998
I60749
sI22999
I3215
sI23000
I8151
sI23002
I2200
sI23004
I8607
sI23007
I4761
sI23008
I38227
sI23012
I132796
sI23014
I13037
sI23016
I11814
sI23017
I5650
sI23018
I4812
sI23021
NsI23023
I14754
sI23024
I199524
sI23031
I45355
sI23033
I22773
sI23036
I20057
sI23038
I11290
sI23039
I17456
sI23042
NsI23050
I197140
sI23052
I5607
sI23054
I31034
sI23055
I5645
sI23058
I6830
sI23063
I6830
sI23064
I7922
sI23066
NsI23067
I5089
sI23068
I41446
sI23069
I812
sI23071
I2856
sI23074
I7922
sI23075
NsI23076
I41424
sI23077
I7922
sI23080
I42819
sI23082
I200161
sI23083
I5786
sI23084
I6327
sI23085
I577
sI23086
I197815
sI23091
NsI23092
NsI23093
NsI23094
I37002
sI23097
NsI23099
I8047
sI23105
I38800
sI23109
I7506
sI23111
I48953
sI23112
I37705
sI23113
I36810
sI23115
I9146
sI23116
I4713
sI23118
I198561
sI23120
I61408
sI23121
NsI23122
I3303
sI23126
I47253
sI23127
I32107
sI23129
NsI23130
NsI23132
NsI23133
I5650
sI23135
NsI23141
I31122
sI23142
I2514
sI23144
I15962
sI23145
NsI23146
NsI23147
I48197
sI23148
NsI23149
I4768
sI23150
NsI23153
I8551
sI23154
I7922
sI23157
I5645
sI23159
NsI23160
I43948
sI23162
NsI23163
I48403
sI23164
I20792
sI23165
I30962
sI23167
I31688
sI23168
I43948
sI23170
I12322
sI23171
I44160
sI23172
I3215
sI23173
I3292
sI23176
NsI23177
I11404
sI23178
I41585
sI23179
I197991
sI23180
I44143
sI23181
I199588
sI23182
NsI23184
NsI23185
I12414
sI23186
I7922
sI23187
I50599
sI23188
I3212
sI23189
I3303
sI23190
NsI23191
I34568
sI23193
I20783
sI23195
NsI23196
I43571
sI23197
I29695
sI23198
I34624
sI23200
NsI23201
I5410
sI23204
NsI23205
NsI23206
I9143
sI23208
I3352
sI23209
NsI23210
I12876
sI23212
I49420
sI23214
I42303
sI23216
I31334
sI23218
I5397
sI23220
I35540
sI23222
I39555
sI23223
I2119
sI23224
I12322
sI23225
I35665
sI23226
I3215
sI23230
I13046
sI23232
I197451
sI23233
I61098
sI23234
I3352
sI23236
I3292
sI23237
I28685
sI23238
NsI23239
NsI23240
NsI23242
I12322
sI23243
I35665
sI23244
I3215
sI23245
I3215
sI23246
NsI23248
I3265
sI23249
I12322
sI23252
I12876
sI23253
I6830
sI23254
I12322
sI23255
NsI23257
I6898
sI23258
I15895
sI23262
I25417
sI23263
I15962
sI23264
I3301
sI23265
I3269
sI23266
I9145
sI23267
I57656
sI23268
I8311
sI23269
NsI23271
I50673
sI23272
I1853
sI23277
I3292
sI23278
I8829
sI23279
I790
sI23281
I28573
sI23282
NsI23283
I12353
sI23284
I3301
sI23286
I61169
sI23287
I1136
sI23288
I16141
sI23289
I21502
sI23290
I12322
sI23291
I6830
sI23292
I198345
sI23293
I48161
sI23294
I12322
sI23296
I12322
sI23297
NsI23298
I12322
sI23299
I5432
sI23303
I49605
sI23305
NsI23306
I3215
sI23307
I60664
sI23308
I25472
sI23309
NsI23310
I21502
sI23311
I3269
sI23313
I719
sI23314
I30764
sI23317
NsI23318
I199652
sI23321
I3292
sI23322
I7738
sI23324
NsI23326
I3269
sI23328
I59793
sI23329
I3215
sI23331
I4434
sI23333
I3352
sI23335
I3269
sI23336
I3269
sI23337
I6739
sI23338
I45043
sI23342
I24192
sI23343
I34288
sI23344
NsI23345
I12874
sI23346
I37090
sI23351
I3333
sI23352
I1759
sI23353
I5602
sI23355
I12874
sI23356
I6706
sI23357
I20712
sI23358
NsI23360
I9143
sI23362
NsI23365
I199516
sI23367
I25459
sI23368
I20676
sI23369
I8228
sI23370
I21021
sI23373
I15962
sI23375
I200770
sI23376
I12874
sI23377
I15557
sI23378
I7049
sI23380
I47438
sI23382
I17705
sI23383
I12350
sI23385
I7303
sI23386
I7861
sI23387
I12322
sI23389
I1853
sI23390
I852
sI23392
I29413
sI23394
I17705
sI23396
I852
sI23402
NsI23403
I55944
sI23405
I59164
sI23406
I53164
sI23408
I63318
sI23409
I17660
sI23410
I4768
sI23411
I4826
sI23413
I7922
sI23417
I2470
sI23419
I9829
sI23422
I18419
sI23423
I45725
sI23424
I9889
sI23426
I9143
sI23427
I9143
sI23428
I15533
sI23432
I6830
sI23433
I5421
sI23434
I20657
sI23440
I27818
sI23441
I4804
sI23442
I4739
sI23445
I17501
sI23448
I45754
sI23450
I197121
sI23451
I8522
sI23452
I5769
sI23456
NsI23459
I15399
sI23460
I4826
sI23461
I4826
sI23462
I4788
sI23463
I28110
sI23467
I55915
sI23471
I37063
sI23473
I17451
sI23474
I34569
sI23479
I4804
sI23480
I17552
sI23481
I24016
sI23483
I4713
sI23486
I133456
sI23488
I35805
sI23500
I27747
sI23506
NsI23509
NsI23512
I37381
sI23526
I6057
sI23534
NsI23538
I12143
sI23541
NsI23548
I28002
sI23552
I327813
sI23557
I34083
sI23565
I2116
sI23566
I50272
sI23567
NsI23573
I61468
sI23589
NsI23602
I286
sI23604
I12578
sI23606
I3320
sI23607
I16075
sI23609
NsI23610
I8551
sI23611
I30781
sI23613
I29600
sI23617
I6730
sI23618
I29518
sI23621
I6799
sI23622
I12312
sI23623
I200497
sI23624
I41176
sI23625
I36961
sI23635
I8881
sI23636
I3303
sI23639
I29562
sI23641
I5466
sI23644
I3301
sI23646
I3301
sI23648
I8522
sI23653
I12578
sI23655
I3249
sI23657
I13272
sI23660
I6735
sI23662
I34779
sI23665
I13237
sI23674
I57513
sI23676
I12715
sI23679
I37192
sI23684
I3262
sI23685
I8220
sI23686
I12479
sI23690
I20115
sI23697
I17625
sI23699
I34984
sI23700
I198096
sI23702
I12338
sI23704
I7922
sI23706
I56300
sI23707
I4808
sI23711
I42580
sI23713
I4804
sI23714
I11426
sI23719
I31633
sI23722
I7303
sI23736
NsI23743
I5603
sI23744
I7922
sI23749
I22773
sI23754
I33139
sI23755
I50195
sI23762
I35382
sI23769
I18822
sI23771
I22047
sI23777
I12322
sI23780
I4270
sI23782
NsI23796
I197486
sI23801
I5488
sI23802
I34285
sI23804
I12844
sI23805
I9143
sI23806
NsI23809
I6830
sI23811
NsI23812
I25409
sI23813
I3265
sI23817
I6849
sI23819
I5432
sI23822
I12844
sI23823
I3265
sI23824
I3320
sI23826
NsI23827
I9143
sI23829
I15557
sI23831
I7018
sI23834
I201026
sI23835
I30764
sI23836
I51862
sI23837
I49285
sI23839
I3320
sI23842
I16735
sI23843
I8304
sI23844
NsI23846
I4134
sI23847
I44334
sI23848
NsI23850
I34526
sI23851
I4812
sI23852
NsI23853
I199554
sI23854
I49889
sI23857
I4837
sI23858
NsI23859
I3250
sI23860
I50316
sI23865
I56339
sI23866
NsI23867
I21556
sI23869
I8326
sI23872
I5385
sI23873
I3265
sI23874
I23724
sI23875
I25054
sI23876
NsI23877
I3265
sI23878
NsI23880
I39375
sI23881
NsI23882
I202087
sI23883
I8339
sI23884
I12618
sI23886
I3215
sI23887
I49867
sI23889
NsI23890
NsI23891
I13000
sI23892
I1901
sI23893
NsI23898
I22645
sI23899
I29314
sI23900
NsI23902
I9143
sI23904
I29562
sI23906
I42355
sI23907
I6805
sI23908
I48464
sI23909
I202128
sI23910
I39554
sI23911
I6848
sI23912
I3352
sI23913
I3320
sI23914
I31658
sI23915
NsI23916
I60942
sI23917
I15962
sI23918
I6830
sI23920
NsI23924
NsI23928
I15969
sI23929
NsI23930
I12824
sI23931
I29414
sI23933
I29562
sI23934
I15962
sI23936
I3215
sI23937
I31673
sI23938
NsI23939
I3215
sI23940
I5410
sI23941
I8473
sI23942
I16298
sI23943
I28854
sI23944
I3352
sI23945
I6830
sI23946
I200561
sI23947
I197697
sI23948
I60601
sI23951
NsI23952
I33923
sI23953
I8453
sI23955
NsI23957
NsI23958
NsI23960
I199119
sI23961
I34372
sI23962
I3320
sI23964
I20278
sI23968
I12874
sI23969
I199935
sI23970
I3320
sI23971
I31200
sI23973
I8515
sI23974
NsI23980
I5410
sI23982
NsI23983
NsI23984
I2552
sI23985
I12714
sI23986
I5564
sI23987
I48156
sI23989
NsI23990
NsI23993
I7922
sI23994
I8422
sI23998
I34092
sI23999
NsI24003
NsI24004
I3265
sI24005
I15659
sI24010
I9143
sI24011
I1136
sI24012
NsI24015
I9143
sI24016
I13127
sI24018
I15502
sI24022
I25596
sI24023
I29396
sI24024
I9143
sI24025
I3269
sI24026
I29396
sI24027
I9143
sI24028
I1136
sI24030
I25596
sI24031
I1136
sI24032
I6805
sI24034
I3265
sI24035
I3292
sI24037
I553
sI24042
I6830
sI24044
I9031
sI24047
I57141
sI24048
NsI24049
I3292
sI24050
I3301
sI24051
NsI24052
I48305
sI24054
I20312
sI24055
NsI24057
I35540
sI24059
I12871
sI24062
NsI24064
I3292
sI24066
I25596
sI24067
I41163
sI24068
I12322
sI24069
I9143
sI24070
I3269
sI24071
I15435
sI24072
I3292
sI24075
I9031
sI24076
NsI24077
NsI24079
I6848
sI24080
I8447
sI24081
I200519
sI24083
NsI24084
I29066
sI24086
I43520
sI24087
NsI24088
I6799
sI24089
I58243
sI24090
I52048
sI24091
NsI24093
I25596
sI24094
I9143
sI24095
I12322
sI24096
I12414
sI24097
I8400
sI24099
NsI24101
I39309
sI24102
I48526
sI24105
NsI24106
I29314
sI24107
I52094
sI24108
I50858
sI24109
I15542
sI24110
I15557
sI24112
NsI24113
NsI24114
I33984
sI24115
I3320
sI24116
I199964
sI24120
I198161
sI24123
I12759
sI24125
NsI24126
I43350
sI24128
I9143
sI24132
I60486
sI24133
NsI24134
NsI24137
I60129
sI24138
NsI24142
I13030
sI24145
NsI24146
NsI24147
I15542
sI24150
I15435
sI24152
NsI24155
I1267
sI24156
NsI24157
I680
sI24160
NsI24161
I6848
sI24163
I6848
sI24169
I52286
sI24171
I6805
sI24172
I201587
sI24174
I6830
sI24178
NsI24179
I15623
sI24180
I39642
sI24181
I10481
sI24182
I7727
sI24183
NsI24184
NsI24185
I6830
sI24188
I6830
sI24189
I3215
sI24191
I2552
sI24192
I12322
sI24193
I3320
sI24196
I60294
sI24197
I29314
sI24198
I39440
sI24201
I201021
sI24202
I12849
sI24204
I9905
sI24207
I17893
sI24209
I26868
sI24212
I41011
sI24216
NsI24217
I132454
sI24221
I28768
sI24222
I45193
sI24223
NsI24224
NsI24226
NsI24229
I7469
sI24230
I4739
sI24231
I17893
sI24233
I23700
sI24234
I55359
sI24235
I18200
sI24240
I5089
sI24242
I4804
sI24244
I15754
sI24246
I41913
sI24249
I11139
sI24253
NsI24260
I45304
sI24261
NsI24263
I38500
sI24267
I8708
sI24268
I4767
sI24269
NsI24273
NsI24274
I4621
sI24275
I15344
sI24276
NsI24280
I4618
sI24285
I132280
sI24286
I41736
sI24287
I38794
sI24288
I57943
sI24294
I41733
sI24295
I8615
sI24300
I7679
sI24301
I5413
sI24303
I22773
sI24304
NsI24307
NsI24308
I17552
sI24309
NsI24310
I2907
sI24311
I36997
sI24314
I812
sI24318
NsI24320
I5432
sI24323
NsI24324
I35665
sI24325
NsI24327
NsI24329
I15557
sI24330
I3269
sI24334
I3320
sI24336
I12322
sI24337
I44053
sI24338
I35540
sI24340
I812
sI24341
I12871
sI24342
NsI24343
I203382
sI24344
NsI24345
I39309
sI24346
I8469
sI24348
I9872
sI24350
NsI24353
I6830
sI24354
I24187
sI24355
I34779
sI24356
I3320
sI24357
I29562
sI24358
NsI24360
NsI24361
I57503
sI24362
NsI24365
NsI24367
I2590
sI24368
I3265
sI24369
NsI24370
NsI24371
I35244
sI24372
I41913
sI24374
I13189
sI24378
I12083
sI24384
I201105
sI24385
I24592
sI24387
I9143
sI24388
I5432
sI24389
I15542
sI24390
I8094
sI24392
I200050
sI24393
I3320
sI24394
I48218
sI24395
NsI24400
I8426
sI24402
I36914
sI24405
I34968
sI24406
I43256
sI24409
I200799
sI24410
I29632
sI24411
I15895
sI24412
I6830
sI24413
I198872
sI24414
I200846
sI24415
I21235
sI24418
NsI24419
I34606
sI24420
I2119
sI24422
I9506
sI24424
NsI24425
I12578
sI24427
I3243
sI24428
I44858
sI24431
I201402
sI24432
I3265
sI24433
I52056
sI24434
I33915
sI24435
I28978
sI24436
I21193
sI24437
I43096
sI24438
I9143
sI24439
I31590
sI24443
I7718
sI24447
I25596
sI24449
I12508
sI24450
I1267
sI24451
I2856
sI24455
NsI24456
I12849
sI24457
I6830
sI24460
I1712
sI24461
I198218
sI24462
I8708
sI24464
I3269
sI24465
I5602
sI24466
I31334
sI24468
I201603
sI24469
I34968
sI24470
I12322
sI24471
I9143
sI24472
I197214
sI24475
NsI24476
I27896
sI24477
I3265
sI24478
I3333
sI24480
I43957
sI24482
I31391
sI24483
I201330
sI24485
I49322
sI24488
I12871
sI24489
NsI24490
I8447
sI24492
NsI24493
NsI24495
I196752
sI24496
NsI24497
NsI24498
NsI24499
I34222
sI24501
I60447
sI24503
I12363
sI24504
I201535
sI24505
I9031
sI24507
I2119
sI24509
I15516
sI24510
NsI24513
NsI24516
I16086
sI24517
I3215
sI24518
NsI24519
I5432
sI24520
I12322
sI24522
I199743
sI24523
I2116
sI24524
I8473
sI24525
I39878
sI24528
I204281
sI24530
NsI24532
I34971
sI24535
I60049
sI24536
I20836
sI24537
I2119
sI24538
I6799
sI24539
I3320
sI24540
NsI24541
I1901
sI24542
I559
sI24544
I8426
sI24545
I60153
sI24546
I12315
sI24550
I6848
sI24551
I25255
sI24553
I35612
sI24554
I3320
sI24555
I8422
sI24558
NsI24560
NsI24562
I39729
sI24564
I28941
sI24565
NsI24566
I16229
sI24569
I12353
sI24572
I15713
sI24574
NsI24575
I35224
sI24577
I15557
sI24578
I2119
sI24579
I56876
sI24580
NsI24581
NsI24583
NsI24584
I35540
sI24585
I5410
sI24586
I2611
sI24589
NsI24592
I59507
sI24596
I12844
sI24597
NsI24600
I37100
sI24601
I12414
sI24602
I7642
sI24604
I10091
sI24605
I3265
sI24606
I37213
sI24607
I37363
sI24608
I33791
sI24609
I7642
sI24610
I9829
sI24612
I34799
sI24614
I196739
sI24618
NsI24619
I6057
sI24621
NsI24622
I50463
sI24624
I42298
sI24626
I20115
sI24628
I28573
sI24629
I24016
sI24631
NsI24632
I9829
sI24633
I22773
sI24634
I13127
sI24635
I13037
sI24637
I1680
sI24639
I11351
sI24640
I12400
sI24643
I59874
sI24644
I9829
sI24645
I15480
sI24647
NsI24649
I577
sI24651
I9116
sI24656
I5650
sI24658
I198864
sI24659
I37363
sI24660
I5089
sI24662
I50463
sI24665
I12414
sI24666
I39537
sI24669
I50245
sI24670
I8334
sI24671
I21379
sI24672
I9829
sI24673
NsI24675
I15374
sI24679
NsI24680
I7922
sI24681
I29909
sI24682
NsI24683
I202114
sI24684
I15433
sI24686
NsI24688
I1136
sI24689
NsI24690
NsI24691
NsI24695
NsI24696
I50517
sI24697
I47474
sI24699
I44053
sI24704
NsI24706
I20115
sI24707
I48176
sI24709
I51559
sI24711
NsI24721
NsI24723
I57675
sI24725
I701
sI24728
I37100
sI24729
NsI24731
I7922
sI24732
I45629
sI24734
I61417
sI24736
I13037
sI24737
NsI24738
NsI24739
NsI24742
I4739
sI24743
I9829
sI24744
I812
sI24745
I12414
sI24748
I29562
sI24749
I31549
sI24750
I8670
sI24751
I37100
sI24752
I58715
sI24760
I36947
sI24762
I36947
sI24764
NsI24765
I37037
sI24766
I33772
sI24770
I1136
sI24774
I30925
sI24775
I49467
sI24776
NsI24779
NsI24784
NsI24785
I327692
sI24787
I24016
sI24788
I24016
sI24789
I7642
sI24790
I25478
sI24795
I7642
sI24797
I20115
sI24798
I37101
sI24799
I45694
sI24800
I6805
sI24801
I44208
sI24802
I9268
sI24804
I12874
sI24806
I39308
sI24809
NsI24810
NsI24811
I57033
sI24812
I201453
sI24813
I3215
sI24817
I39651
sI24818
I6805
sI24820
I3320
sI24823
I11252
sI24824
NsI24826
I43984
sI24828
I12935
sI24829
I3352
sI24830
I50926
sI24831
I35041
sI24833
I29650
sI24836
I5650
sI24838
I12824
sI24839
NsI24841
I6830
sI24842
I16322
sI24844
I132116
sI24845
I43754
sI24846
I199811
sI24847
I44981
sI24848
NsI24850
I202032
sI24852
I35699
sI24854
I62094
sI24855
I3301
sI24856
I38880
sI24858
I5607
sI24859
I9119
sI24860
I18451
sI24861
I3209
sI24862
I41881
sI24863
I45194
sI24864
NsI24865
NsI24866
I39674
sI24867
I30259
sI24870
I7922
sI24871
I41937
sI24872
NsI24874
I174
sI24876
I29562
sI24879
I13189
sI24880
NsI24882
I202032
sI24883
I5432
sI24885
I3320
sI24886
I35227
sI24887
I24309
sI24888
I59771
sI24889
I56478
sI24890
I50810
sI24891
I20625
sI24892
I12322
sI24893
I1653
sI24894
I29562
sI24896
I12897
sI24897
I35612
sI24898
I2860
sI24899
I20115
sI24900
I30362
sI24901
I198345
sI24902
I34948
sI24903
I12571
sI24904
NsI24905
I9145
sI24906
I15456
sI24907
I3209
sI24908
I5650
sI24909
NsI24910
I11492
sI24911
I9822
sI24912
I24309
sI24914
I7018
sI24915
I8823
sI24916
I17917
sI24917
I6871
sI24918
I8218
sI24920
I15557
sI24921
I6849
sI24922
I8218
sI24923
NsI24924
I47116
sI24925
I60015
sI24927
I10013
sI24928
I2609
sI24929
NsI24930
NsI24931
I62214
sI24932
I8928
sI24934
I3292
sI24936
I3215
sI24937
I2516
sI24938
I3269
sI24939
NsI24940
I14615
sI24942
NsI24944
I45355
sI24945
I3242
sI24946
I3320
sI24947
I60015
sI24951
I6830
sI24952
NsI24953
I786
sI24954
I209
sI24955
I6830
sI24956
I16322
sI24958
I36947
sI24962
I2119
sI24963
I8468
sI24964
I44769
sI24965
I6730
sI24966
I45355
sI24967
I29562
sI24968
I60486
sI24970
I9135
sI24971
I7922
sI24972
I13037
sI24973
I45184
sI24976
I39906
sI24977
I24989
sI24979
I202207
sI24981
NsI24982
I33984
sI24984
NsI24988
I41653
sI24989
I2500
sI24990
I197430
sI24991
I17660
sI24993
NsI24994
I32440
sI24995
I201011
sI24996
I8473
sI24997
I200738
sI24998
I7922
sI24999
I24786
sI25001
I40028
sI25002
I28573
sI25003
I12714
sI25004
I20115
sI25005
NsI25006
I25513
sI25007
I37492
sI25008
I7922
sI25011
I18419
sI25012
NsI25015
I31143
sI25016
I29255
sI25018
I8551
sI25019
I3265
sI25020
I57771
sI25021
I4804
sI25022
I5390
sI25025
I18182
sI25026
NsI25027
I22773
sI25028
NsI25030
I7922
sI25031
I30036
sI25034
I37705
sI25035
I1267
sI25036
I25019
sI25037
NsI25039
I5607
sI25041
I11260
sI25043
I4804
sI25044
NsI25047
I4760
sI25049
I12849
sI25053
NsI25054
I42334
sI25055
I7642
sI25059
I9116
sI25060
I7922
sI25061
I200541
sI25064
I133318
sI25066
I37363
sI25067
I51561
sI25068
I1680
sI25069
I7922
sI25070
I12222
sI25071
I37363
sI25072
I59587
sI25073
I3582
sI25074
I6939
sI25075
NsI25076
I35819
sI25078
I12322
sI25079
I4851
sI25080
I134783
sI25081
I701
sI25082
I10130
sI25087
I30969
sI25089
I42571
sI25090
I37363
sI25093
I9829
sI25098
I64073
sI25099
NsI25100
I133579
sI25101
I25369
sI25102
NsI25103
I133124
sI25104
NsI25105
I56616
sI25106
I47972
sI25110
NsI25111
I9829
sI25112
I12849
sI25113
NsI25114
NsI25117
I18106
sI25118
NsI25119
NsI25120
I44691
sI25121
I29256
sI25122
I55352
sI25123
NsI25124
I35456
sI25128
NsI25129
NsI25130
I134026
sI25133
I47271
sI25134
I29049
sI25136
I50558
sI25137
I62227
sI25138
I8551
sI25139
I44053
sI25141
I3215
sI25142
I34984
sI25144
I23860
sI25145
I15975
sI25146
I60359
sI25147
NsI25148
I16300
sI25149
NsI25150
I35807
sI25152
I7545
sI25154
NsI25155
I4657
sI25156
I18663
sI25157
I9829
sI25158
I17622
sI25160
I4755
sI25161
I58457
sI25163
NsI25164
I24560
sI25165
I7657
sI25166
NsI25168
I200593
sI25170
NsI25173
NsI25174
I12908
sI25175
I44244
sI25176
I29309
sI25177
I62173
sI25178
I34458
sI25179
I47253
sI25181
I34718
sI25182
I8151
sI25184
I6871
sI25185
I9829
sI25187
NsI25190
I48434
sI25191
I32363
sI25192
NsI25195
I1221
sI25197
I38170
sI25198
NsI25199
I59729
sI25200
I10474
sI25201
I28990
sI25203
I31138
sI25205
I25019
sI25206
I16591
sI25207
I20853
sI25208
I38220
sI25209
I131583
sI25210
I37100
sI25211
I48361
sI25213
I24309
sI25214
NsI25215
NsI25220
I2609
sI25222
NsI25223
I9121
sI25224
I11232
sI25225
I13037
sI25226
I60162
sI25229
NsI25231
NsI25232
I19165
sI25233
I34695
sI25234
I27216
sI25235
I132268
sI25236
I4713
sI25237
NsI25239
I17974
sI25243
NsI25245
NsI25247
I58262
sI25248
NsI25249
I57420
sI25250
I132952
sI25252
I17465
sI25253
I34984
sI25255
NsI25256
NsI25257
I49063
sI25258
NsI25259
I133812
sI25260
I5432
sI25261
I58405
sI25262
I6830
sI25263
I39642
sI25265
I47524
sI25267
NsI25270
I47447
sI25271
I3352
sI25274
I8928
sI25277
NsI25278
I9498
sI25280
I18002
sI25281
I24904
sI25282
I9829
sI25283
I37100
sI25284
I9829
sI25287
NsI25288
I37100
sI25289
NsI25290
I4788
sI25291
NsI25293
I37100
sI25296
I37100
sI25297
I60876
sI25298
NsI25302
NsI25303
I198024
sI25305
I34087
sI25308
I23252
sI25309
NsI25310
NsI25312
I132976
sI25313
I6830
sI25314
I8468
sI25315
I34080
sI25318
I198781
sI25319
I10835
sI25323
I203797
sI25324
I7922
sI25325
I22908
sI25327
NsI25328
NsI25329
I21161
sI25331
I50585
sI25333
I6848
sI25334
I42525
sI25335
I3303
sI25336
I12479
sI25337
I3308
sI25338
I131226
sI25339
I28972
sI25341
I6830
sI25342
NsI25345
I25019
sI25346
I8551
sI25347
I203953
sI25348
I5432
sI25351
I48379
sI25352
NsI25354
I51309
sI25355
I37100
sI25356
NsI25357
NsI25362
I8339
sI25364
NsI25365
I9829
sI25367
NsI25369
NsI25370
NsI25373
I132933
sI25375
I9829
sI25376
NsI25377
I24560
sI25379
I4058
sI25385
I24309
sI25386
I23184
sI25387
I132933
sI25389
I59587
sI25390
I33234
sI25391
NsI25393
I22211
sI25395
I43197
sI25398
I132116
sI25399
I1221
sI25402
I51090
sI25404
I52455
sI25408
I39608
sI25416
I30783
sI25420
I43754
sI25421
NsI25429
NsI25432
I43320
sI25433
NsI25434
I16629
sI25436
I8591
sI25438
I2860
sI25440
I6830
sI25445
NsI25446
NsI25453
I38740
sI25459
I3855
sI25462
I196638
sI25463
NsI25464
I25455
sI25468
NsI25471
NsI25477
I15895
sI25479
I49508
sI25480
I17660
sI25483
I25019
sI25484
I197738
sI25486
I35804
sI25488
I9829
sI25501
I44395
sI25512
I14420
sI25515
I14522
sI25523
I20299
sI25533
I27820
sI25535
I49800
sI25552
I10715
sI25555
I22548
sI25560
I14420
sI25565
I28683
sI25586
I42109
sI25594
I12353
sI25598
I1930
sI25601
I39365
sI25603
I1759
sI25605
I37100
sI25606
I16097
sI25607
I41750
sI25608
NsI25610
I29587
sI25615
I6867
sI25616
I12874
sI25623
I42893
sI25626
I37100
sI25631
I12374
sI25634
I34788
sI25636
I6830
sI25648
I9143
sI25651
I57187
sI25653
I31317
sI25654
I6799
sI25656
I1835
sI25661
I3329
sI25664
NsI25667
NsI25670
I60781
sI25671
I6866
sI25674
I201293
sI25676
NsI25678
I201730
sI25686
I60781
sI25693
I28885
sI25697
I702
sI25700
I24796
sI25701
I55391
sI25703
I5610
sI25705
I9824
sI25718
I6799
sI25719
I3333
sI25722
I21021
sI25727
I21430
sI25731
I60032
sI25733
I8818
sI25736
I9370
sI25737
I7922
sI25738
I10021
sI25739
I23629
sI25740
I2497
sI25741
I2611
sI25744
I50059
sI25745
I201860
sI25750
I2497
sI25754
I39737
sI25755
NsI25757
I29086
sI25758
I10481
sI25759
NsI25766
I6121
sI25767
I22927
sI25775
NsI25777
I27747
sI25778
I22927
sI25779
I22927
sI25781
I10834
sI25782
I15935
sI25792
I3215
sI25800
NsI25802
NsI25803
I133124
sI25805
I174
sI25806
NsI25807
I5645
sI25809
NsI25812
I9790
sI25815
NsI25818
I43720
sI25820
I263765
sI25821
I36947
sI25823
I36947
sI25827
I7029
sI25828
I17974
sI25832
NsI25833
I1136
sI25835
I198394
sI25838
I47956
sI25844
I12695
sI25845
I24309
sI25850
I25660
sI25854
NsI25859
I12849
sI25860
I4
sI25861
I24195
sI25864
I7922
sI25869
I198381
sI25870
NsI25872
NsI25874
I5769
sI25875
I198504
sI25876
NsI25877
NsI25885
I7522
sI25896
NsI25900
I17435
sI25901
I198247
sI25902
NsI25903
NsI25904
NsI25905
I7018
sI25906
NsI25908
NsI25913
I8551
sI25915
I9143
sI25916
NsI25917
NsI25921
I42610
sI25922
NsI25924
I43478
sI25929
I8551
sI25933
I28682
sI25934
NsI25939
NsI25940
NsI25941
NsI25943
I47111
sI25947
I196828
sI25951
I11830
sI25953
I7753
sI25955
I55101
sI25957
NsI25959
I36947
sI25963
I6805
sI25964
I37100
sI25965
I3212
sI25967
I5603
sI25968
I56478
sI25969
I21502
sI25972
I12400
sI25976
I31115
sI25978
I199218
sI25980
I3320
sI25982
I5650
sI25983
I5650
sI25985
I43847
sI25987
NsI25989
I701
sI25990
I10103
sI25991
NsI25993
I35776
sI25997
NsI25998
I199125
sI25999
NsI26002
I20938
sI26003
NsI26004
I1136
sI26005
I9143
sI26010
NsI26011
I11426
sI26014
NsI26015
I1136
sI26016
I9143
sI26017
NsI26018
I9143
sI26019
I57961
sI26020
NsI26021
NsI26023
I29396
sI26024
NsI26025
I9143
sI26026
NsI26028
I9143
sI26029
I9143
sI26030
I15542
sI26031
I25596
sI26032
I18712
sI26033
I9143
sI26034
I3265
sI26035
I29256
sI26037
I12322
sI26038
NsI26041
I20001
sI26043
NsI26047
I9143
sI26048
I3265
sI26051
I9143
sI26052
I9143
sI26053
NsI26054
I25596
sI26055
NsI26057
I12578
sI26058
I559
sI26064
I6830
sI26065
I6830
sI26066
I6830
sI26067
NsI26069
I50245
sI26071
NsI26072
I3352
sI26073
I7922
sI26074
NsI26075
NsI26076
I13156
sI26077
I9143
sI26078
I9930
sI26083
I3265
sI26084
NsI26085
I3303
sI26087
NsI26091
I8220
sI26092
I1759
sI26094
I6830
sI26095
I12844
sI26096
I31334
sI26097
I47919
sI26098
I3215
sI26101
I7922
sI26102
I8468
sI26103
I9145
sI26106
NsI26108
I35540
sI26113
I47697
sI26114
I21367
sI26115
I1136
sI26116
I8778
sI26118
I12322
sI26119
NsI26120
NsI26121
I35297
sI26122
I4739
sI26124
NsI26128
NsI26129
I12322
sI26130
I36941
sI26132
I3215
sI26133
I56933
sI26135
NsI26136
I3215
sI26137
I7922
sI26138
NsI26139
NsI26140
I8228
sI26142
I58138
sI26143
I11351
sI26144
NsI26145
I3215
sI26147
I7922
sI26148
I4788
sI26151
I60891
sI26153
NsI26154
I5089
sI26155
I45629
sI26156
I9143
sI26157
I13156
sI26158
I41733
sI26159
NsI26161
I6830
sI26165
NsI26168
I15389
sI26169
I48511
sI26171
I7922
sI26175
I719
sI26176
I133481
sI26177
NsI26178
I28851
sI26179
I200995
sI26181
I12727
sI26182
NsI26183
I4739
sI26185
I16246
sI26188
NsI26190
I12695
sI26192
I3292
sI26193
I3303
sI26194
NsI26199
I7922
sI26200
I8997
sI26201
I13319
sI26206
I25019
sI26213
NsI26214
I196925
sI26219
I12576
sI26220
NsI26222
I7922
sI26225
I12978
sI26226
I30873
sI26232
I5615
sI26235
I41833
sI26236
NsI26237
I5410
sI26238
I12812
sI26245
I8449
sI26246
I31721
sI26249
I45650
sI26255
I5432
sI26256
I5432
sI26257
NsI26258
I719
sI26259
NsI26261
I202131
sI26262
I13301
sI26264
I38565
sI26267
I9085
sI26268
NsI26271
I29422
sI26273
I43766
sI26277
I39279
sI26279
I39405
sI26280
NsI26285
I50084
sI26286
I31126
sI26289
I12985
sI26290
I51124
sI26291
I49420
sI26292
NsI26293
I34779
sI26295
I42610
sI26296
I7018
sI26297
I812
sI26298
I35540
sI26299
I8767
sI26304
I3209
sI26305
NsI26308
NsI26309
I38037
sI26310
I39015
sI26311
I8764
sI26312
I60294
sI26313
I51541
sI26314
I25124
sI26315
I31549
sI26316
I13272
sI26317
NsI26318
NsI26320
NsI26321
I8881
sI26325
NsI26327
I15735
sI26328
I39308
sI26330
I6849
sI26334
I3215
sI26335
I54548
sI26336
I42689
sI26337
I43754
sI26338
NsI26340
I59587
sI26341
I9543
sI26342
NsI26343
I201701
sI26345
I16322
sI26346
I43754
sI26347
I22753
sI26349
I48030
sI26350
NsI26351
I16322
sI26352
I12670
sI26353
I31317
sI26354
NsI26355
I204053
sI26356
I6805
sI26357
NsI26358
I3320
sI26360
I8881
sI26362
I24962
sI26363
I12844
sI26365
I5410
sI26366
I59835
sI26368
I35843
sI26369
NsI26371
I6830
sI26372
I8997
sI26373
I20115
sI26374
I25512
sI26377
I199218
sI26378
I50223
sI26380
I3215
sI26382
I51744
sI26386
I12322
sI26387
I201011
sI26388
I199218
sI26389
I20569
sI26390
NsI26391
NsI26392
I12886
sI26393
NsI26394
NsI26395
I30722
sI26396
I7922
sI26397
I56377
sI26398
NsI26399
I199218
sI26400
I6830
sI26401
I41887
sI26402
I3265
sI26403
I701
sI26404
I9143
sI26405
I17676
sI26406
NsI26407
I22773
sI26408
I5615
sI26409
I30881
sI26410
NsI26413
I3303
sI26416
NsI26417
I4788
sI26420
I6830
sI26421
NsI26423
I7922
sI26424
I5615
sI26427
NsI26428
NsI26429
NsI26430
NsI26431
I43975
sI26432
I197288
sI26433
NsI26434
I48954
sI26436
NsI26437
NsI26438
I2119
sI26439
I6871
sI26442
NsI26444
I15435
sI26445
I15435
sI26446
NsI26447
I31094
sI26448
NsI26449
I7922
sI26450
NsI26451
I203944
sI26454
I22773
sI26455
NsI26457
NsI26458
I197078
sI26459
I3215
sI26460
I203195
sI26461
NsI26463
I20115
sI26465
I8447
sI26466
NsI26467
I12844
sI26468
NsI26469
NsI26470
I9534
sI26471
I160
sI26472
NsI26473
NsI26474
NsI26475
I9824
sI26477
I25525
sI26478
NsI26479
NsI26480
NsI26481
I4766
sI26482
I133579
sI26483
NsI26484
NsI26485
I5089
sI26487
NsI26488
I22773
sI26489
I6830
sI26490
I7303
sI26491
I9143
sI26492
I50449
sI26493
NsI26494
I7922
sI26496
I6079
sI26497
I6730
sI26498
I3320
sI26500
I7679
sI26501
I21502
sI26502
NsI26503
NsI26504
NsI26505
I3216
sI26506
I8926
sI26507
I55430
sI26509
I3215
sI26510
I34960
sI26512
NsI26513
I15589
sI26514
I3265
sI26515
I7922
sI26516
NsI26517
NsI26518
I11351
sI26519
I20001
sI26520
NsI26521
NsI26522
I2381
sI26523
NsI26524
I7922
sI26525
NsI26529
I7922
sI26532
I1668
sI26533
NsI26534
NsI26535
NsI26536
NsI26538
I197204
sI26539
NsI26540
I7018
sI26541
NsI26542
NsI26543
I22773
sI26545
NsI26547
NsI26548
I9143
sI26549
NsI26551
I6830
sI26552
I25596
sI26553
I7642
sI26559
I15435
sI26560
NsI26563
I3215
sI26564
I5650
sI26568
NsI26576
I198901
sI26577
I15943
sI26579
NsI26580
I51892
sI26581
I3265
sI26583
NsI26584
NsI26586
I3215
sI26587
NsI26588
NsI26589
I12644
sI26590
I6830
sI26591
I5432
sI26592
I4713
sI26594
I15557
sI26595
NsI26596
NsI26597
I8468
sI26600
I9143
sI26601
NsI26602
I3320
sI26605
I3333
sI26608
I12414
sI26610
I9143
sI26614
NsI26616
I7922
sI26619
I35699
sI26620
I3301
sI26622
I42905
sI26623
NsI26624
I3269
sI26625
I36947
sI26626
NsI26627
I197288
sI26628
NsI26629
I20676
sI26630
I48292
sI26631
I3292
sI26632
I24651
sI26634
I50163
sI26635
I12844
sI26637
I35540
sI26638
I12322
sI26639
NsI26640
I60314
sI26641
NsI26642
I790
sI26644
I3320
sI26648
NsI26649
NsI26653
I16178
sI26654
I3269
sI26655
I25019
sI26656
I29226
sI26657
I8402
sI26658
I35807
sI26659
I44278
sI26660
I701
sI26661
NsI26662
NsI26664
NsI26665
I8331
sI26666
I43859
sI26667
I43234
sI26670
I577
sI26671
I8402
sI26673
I10091
sI26675
I12576
sI26676
I9198
sI26681
NsI26682
NsI26683
NsI26684
NsI26685
I8551
sI26687
I7922
sI26694
I59793
sI26695
I42355
sI26696
I3215
sI26698
I2527
sI26700
NsI26701
I28573
sI26702
I3352
sI26703
NsI26705
I44869
sI26707
I7922
sI26708
I20773
sI26709
I12389
sI26710
NsI26711
I2119
sI26713
NsI26715
I6821
sI26717
I12322
sI26718
I48299
sI26719
NsI26720
I42610
sI26722
I3209
sI26723
I5617
sI26724
I15557
sI26725
I6830
sI26726
I13037
sI26727
NsI26729
NsI26730
I41843
sI26732
I3215
sI26733
I45725
sI26735
I12177
sI26736
I3215
sI26737
I34779
sI26738
I1741
sI26742
I61156
sI26745
NsI26746
I3303
sI26748
NsI26749
I6830
sI26750
I3243
sI26751
I3215
sI26752
NsI26753
NsI26754
I35540
sI26755
I3320
sI26756
I15557
sI26757
I14265
sI26758
I29933
sI26761
I3320
sI26763
NsI26765
I196822
sI26767
I6848
sI26768
I197898
sI26769
I13156
sI26772
NsI26773
I31122
sI26774
I28573
sI26776
I3269
sI26778
NsI26779
I3352
sI26782
I12715
sI26783
I57141
sI26785
I15585
sI26790
NsI26791
I39257
sI26793
I8473
sI26794
I3215
sI26796
I15576
sI26797
I3303
sI26798
I28657
sI26799
I15600
sI26800
I2516
sI26801
NsI26802
I11550
sI26803
I15389
sI26804
I55391
sI26805
I10010
sI26806
I12849
sI26807
I15389
sI26808
I3209
sI26809
NsI26810
I812
sI26812
I199055
sI26813
I6830
sI26814
I2514
sI26815
I135027
sI26817
I20115
sI26818
I15557
sI26819
I5089
sI26821
I3320
sI26822
I12322
sI26823
I2497
sI26824
I1136
sI26825
I48176
sI26826
NsI26827
NsI26828
I3320
sI26830
I13030
sI26831
I6830
sI26832
I23752
sI26833
I47956
sI26834
I22047
sI26835
I17858
sI26836
I701
sI26837
I4713
sI26838
NsI26840
I7922
sI26841
NsI26843
I3320
sI26844
I12350
sI26845
I199218
sI26846
I5435
sI26847
I50204
sI26848
I20904
sI26849
I12871
sI26850
I44684
sI26851
NsI26852
I18103
sI26854
I6830
sI26855
I719
sI26857
I3265
sI26858
I2856
sI26859
I38635
sI26860
NsI26861
I9143
sI26862
I209
sI26863
I7922
sI26865
I7922
sI26866
NsI26868
I16086
sI26870
NsI26872
NsI26873
NsI26874
I9318
sI26876
I5410
sI26877
I24751
sI26878
I12552
sI26879
I48091
sI26880
NsI26881
I6830
sI26884
I3215
sI26886
NsI26888
I6830
sI26889
I3269
sI26890
I3269
sI26891
NsI26892
NsI26893
I3215
sI26894
I1901
sI26895
I8447
sI26896
I3215
sI26898
NsI26899
I31334
sI26900
I15557
sI26901
I200836
sI26902
I1759
sI26903
I1759
sI26904
I49586
sI26906
I12322
sI26908
I3320
sI26909
I3215
sI26910
I47304
sI26911
I12897
sI26913
NsI26915
I2516
sI26917
I6830
sI26918
I16296
sI26919
I7922
sI26921
NsI26922
NsI26923
I201603
sI26924
I50463
sI26925
I62078
sI26926
I5466
sI26927
NsI26928
I29422
sI26929
I6799
sI26930
NsI26931
I7922
sI26932
I15527
sI26933
I5610
sI26934
I701
sI26935
I786
sI26936
I47794
sI26937
I2116
sI26938
I36903
sI26939
I8551
sI26941
I15389
sI26942
I35612
sI26943
I12392
sI26944
I4713
sI26945
I9066
sI26946
I22561
sI26947
I12644
sI26948
I812
sI26949
I12849
sI26951
I15389
sI26952
NsI26953
I1221
sI26954
NsI26955
I3209
sI26956
I10796
sI26957
I1759
sI26958
I719
sI26959
I5391
sI26960
I13303
sI26961
I5089
sI26962
I39798
sI26963
NsI26964
NsI26965
I3269
sI26966
I12714
sI26968
I6805
sI26969
I9143
sI26970
I3320
sI26971
NsI26972
NsI26973
I15389
sI26975
NsI26977
I3320
sI26978
NsI26979
NsI26980
I34700
sI26981
NsI26982
I58297
sI26983
I3320
sI26984
I132865
sI26985
I49455
sI26986
I15502
sI26987
I3215
sI26988
I8551
sI26989
I2510
sI26990
I6661
sI26992
NsI26993
I4730
sI26994
I394715
sI26996
I28878
sI26997
I3320
sI26998
I42774
sI26999
NsI27001
NsI27002
I36947
sI27003
I14210
sI27004
I701
sI27005
I7543
sI27006
I15389
sI27008
I20115
sI27009
I4804
sI27011
I17858
sI27012
I1221
sI27014
NsI27015
NsI27016
I197204
sI27017
I16657
sI27018
I20001
sI27020
I11351
sI27021
I1221
sI27022
I1136
sI27023
I8551
sI27024
I51759
sI27025
I2518
sI27026
NsI27027
I18037
sI27028
NsI27029
I1221
sI27030
I36937
sI27031
I812
sI27032
I1221
sI27033
NsI27034
I786
sI27035
NsI27036
NsI27037
I7922
sI27039
I21219
sI27040
I8612
sI27041
I6830
sI27042
I12705
sI27043
I44515
sI27044
I133326
sI27045
I8192
sI27049
I4739
sI27050
NsI27051
I4739
sI27052
I42116
sI27053
NsI27054
NsI27055
I8881
sI27056
I31976
sI27057
I3320
sI27058
I59587
sI27059
I43754
sI27060
I200519
sI27061
I5483
sI27062
I12353
sI27063
I1241
sI27064
I9143
sI27067
I5089
sI27068
NsI27069
I4755
sI27070
NsI27071
I1221
sI27072
I56402
sI27073
NsI27074
I24962
sI27076
I3352
sI27077
I3333
sI27078
I1764
sI27079
I55811
sI27080
I51074
sI27081
I3269
sI27082
NsI27083
I7922
sI27085
I10143
sI27086
I6830
sI27087
I8402
sI27088
I39102
sI27090
NsI27091
I61102
sI27092
I47956
sI27094
I4713
sI27097
I2856
sI27098
I12880
sI27102
I13156
sI27103
I34248
sI27104
NsI27106
NsI27108
I58085
sI27110
I3320
sI27113
I31976
sI27114
I12307
sI27115
I29695
sI27116
I61174
sI27117
NsI27118
I55811
sI27119
I12849
sI27120
I19397
sI27122
I3359
sI27123
I7543
sI27124
I50463
sI27125
I11427
sI27126
NsI27128
I20001
sI27129
NsI27130
I4685
sI27131
I17518
sI27132
I4804
sI27133
NsI27134
I5089
sI27136
NsI27137
I2856
sI27138
I1221
sI27140
I7922
sI27141
NsI27142
I8167
sI27143
I9534
sI27144
NsI27147
I1221
sI27148
I40285
sI27149
I42973
sI27150
I10143
sI27151
I6697
sI27152
I15389
sI27154
NsI27155
I7922
sI27157
I47956
sI27158
NsI27159
I1221
sI27160
I133326
sI27161
I4804
sI27162
I1221
sI27163
I8400
sI27164
I10143
sI27165
I5089
sI27166
I25242
sI27167
I133326
sI27168
NsI27169
NsI27172
I3352
sI27176
NsI27177
I3320
sI27180
I25513
sI27181
I12874
sI27184
I17660
sI27185
I15374
sI27187
I34984
sI27189
I1221
sI27191
I4804
sI27192
NsI27194
I6871
sI27195
I22773
sI27196
NsI27198
I15419
sI27199
I3320
sI27200
NsI27201
NsI27203
NsI27204
NsI27205
NsI27206
NsI27207
I48239
sI27209
I8551
sI27210
NsI27211
NsI27212
NsI27214
I7922
sI27215
I12611
sI27216
NsI27217
I8468
sI27218
I55811
sI27219
I198064
sI27222
I29562
sI27224
I6706
sI27225
NsI27226
I3269
sI27227
I10620
sI27231
I3269
sI27234
NsI27235
NsI27236
I2856
sI27237
I13092
sI27238
I3320
sI27239
NsI27240
I10796
sI27241
I7922
sI27245
I20115
sI27246
I4150
sI27248
NsI27249
I3320
sI27250
I29414
sI27251
NsI27253
NsI27254
I9208
sI27255
I35540
sI27256
I35613
sI27257
NsI27258
NsI27259
NsI27260
I6830
sI27261
I204266
sI27262
I21502
sI27263
I3215
sI27265
NsI27268
I17974
sI27269
I12083
sI27270
I16333
sI27271
I7543
sI27272
NsI27273
I7657
sI27275
I3243
sI27276
I3269
sI27277
I12322
sI27278
I31564
sI27279
I9198
sI27280
I3320
sI27281
I6830
sI27282
I4704
sI27283
I30036
sI27284
I4713
sI27285
I6848
sI27286
I198668
sI27288
I56030
sI27289
I5410
sI27290
I41723
sI27291
I3269
sI27293
I3269
sI27294
I12322
sI27295
I3320
sI27297
I8612
sI27298
NsI27299
I3292
sI27300
I50071
sI27301
I30881
sI27302
NsI27303
I201701
sI27304
I21502
sI27305
I3215
sI27307
NsI27308
I24990
sI27309
NsI27310
I22773
sI27311
I39020
sI27312
I3320
sI27313
I15399
sI27314
NsI27315
I20676
sI27316
I3269
sI27317
I1759
sI27318
I16086
sI27319
I30764
sI27320
I6830
sI27321
I3320
sI27322
I199811
sI27323
I6830
sI27324
I31334
sI27325
I42487
sI27326
I16086
sI27327
I8422
sI27328
NsI27329
I2259
sI27330
NsI27331
I2514
sI27332
NsI27333
I18037
sI27335
I16086
sI27336
I12638
sI27339
I3292
sI27340
I12810
sI27341
I3269
sI27343
I4657
sI27344
I16086
sI27345
I1241
sI27346
I5432
sI27347
NsI27349
NsI27350
I42695
sI27351
I25472
sI27352
I48680
sI27353
I16086
sI27354
I4804
sI27355
I1759
sI27356
NsI27357
I6882
sI27358
I12322
sI27359
I6830
sI27360
I3303
sI27361
I31334
sI27362
I7922
sI27363
I39603
sI27364
NsI27365
I50624
sI27366
NsI27367
I8881
sI27368
NsI27369
NsI27371
NsI27372
I42885
sI27375
I20845
sI27376
I3320
sI27378
NsI27379
I35540
sI27380
I7922
sI27381
I15962
sI27382
NsI27383
I8402
sI27384
NsI27385
I55811
sI27387
I8612
sI27388
I203296
sI27389
I9
sI27390
I49677
sI27391
I3269
sI27393
I6697
sI27394
I9145
sI27395
NsI27396
NsI27397
I3215
sI27398
I62455
sI27399
NsI27401
I8346
sI27403
I33576
sI27405
I29246
sI27414
I4270
sI27421
I6057
sI27422
NsI27424
NsI27431
NsI27435
NsI27437
I49893
sI27439
I30844
sI27442
I20294
sI27450
I39811
sI27452
I28683
sI27455
I28002
sI27457
I37282
sI27470
I133326
sI27473
NsI27475
NsI27476
I9143
sI27486
I33983
sI27496
I14434
sI27497
I701
sI27498
I21183
sI27499
I60471
sI27502
I52073
sI27503
I27725
sI27504
I26608
sI27505
I262981
sI27506
I10620
sI27507
I6147
sI27508
I52432
sI27509
NsI27511
I10481
sI27515
I14988
sI27517
I24691
sI27522
I47394
sI27523
I11139
sI27525
I22724
sI27526
I16929
sI27527
I14434
sI27528
I42313
sI27529
I11830
sI27533
I27668
sI27535
I5379
sI27538
I27947
sI27540
I5379
sI27543
I11139
sI27544
I10481
sI27545
I47394
sI27546
I11139
sI27548
I52073
sI27549
I3790
sI27550
I264605
sI27551
I10299
sI27552
I27725
sI27554
I52260
sI27555
I27866
sI27558
I11888
sI27561
I33983
sI27576
I21246
sI27577
I5379
sI27579
I33983
sI27581
I57961
sI27583
I33983
sI27584
I202179
sI27586
I42313
sI27587
I21183
sI27588
I42313
sI27590
I5379
sI27591
NsI27592
I21183
sI27594
I15344
sI27597
I15344
sI27598
I393275
sI27603
I1136
sI27639
NsI27643
I20485
sI27644
NsI27645
NsI27653
NsI27654
I41878
sI27657
I6830
sI27658
I33983
sI27659
I5089
sI27660
NsI27661
I12849
sI27663
NsI27665
I20632
sI27666
I60252
sI27667
I209
sI27670
NsI27673
NsI27676
NsI27677
NsI27686
NsI27687
NsI27688
I3215
sI27689
NsI27690
NsI27691
NsI27692
NsI27693
NsI27695
NsI27696
NsI27697
NsI27698
NsI27700
NsI27702
NsI27703
I47438
sI27705
I9790
sI27706
NsI27708
NsI27709
I22773
sI27710
NsI27711
NsI27712
NsI27713
NsI27714
I56478
sI27716
I7679
sI27717
NsI27718
I852
sI27720
NsI27721
NsI27723
NsI27724
NsI27727
I22773
sI27728
I701
sI27730
NsI27731
NsI27732
I37002
sI27734
NsI27736
NsI27737
NsI27738
I37002
sI27739
I88
sI27743
NsI27745
NsI27746
I12969
sI27747
NsI27748
NsI27749
NsI27755
I28329
sI27758
NsI27760
NsI27763
NsI27765
NsI27766
I16086
sI27768
NsI27769
NsI27771
I51184
sI27772
NsI27775
NsI27777
NsI27781
NsI27784
NsI27785
NsI27786
NsI27797
I1221
sI27798
NsI27801
I203954
sI27837
I42283
sI27855
I42038
sI27876
I6830
sI27903
I8248
sI27908
I197965
sI27912
I1241
sI27916
I48680
sI27924
NsI27925
I12389
sI27928
NsI27929
I198499
sI27932
I15735
sI27937
I7679
sI27946
I15913
sI27961
I51468
sI27971
I6830
sI27974
I12709
sI27979
I8767
sI27985
I12337
sI27989
NsI27992
I31317
sI28002
I197580
sI28017
NsI28022
I4788
sI28023
I62143
sI28031
I37282
sI28036
I28762
sI28037
I49505
sI28042
I6799
sI28043
I48347
sI28047
I30988
sI28058
I43234
sI28059
I43220
sI28060
NsI28061
I8767
sI28062
NsI28064
I50469
sI28073
I34974
sI28077
I3292
sI28083
I3269
sI28099
NsI28100
NsI28104
NsI28109
I47394
sI28111
I3265
sI28113
I42610
sI28119
I5408
sI28120
I41101
sI28124
I198918
sI28125
I5400
sI28130
I22548
sI28134
I12874
sI28137
I8402
sI28140
I41405
sI28146
I3215
sI28161
NsI28172
I42393
sI28198
I12714
sI28201
I7477
sI28202
I20115
sI28203
NsI28204
I7922
sI28205
I45121
sI28206
NsI28207
I47394
sI28208
I9143
sI28209
NsI28211
I27884
sI28212
NsI28214
I3209
sI28216
I7727
sI28217
I47394
sI28219
I29170
sI28221
I7922
sI28222
NsI28223
NsI28225
I7922
sI28226
I23655
sI28227
NsI28229
I8997
sI28231
I57961
sI28232
I4788
sI28234
NsI28235
NsI28236
I14754
sI28238
I29518
sI28239
I42313
sI28240
NsI28241
I20299
sI28242
NsI28243
I57961
sI28244
I4766
sI28245
I18196
sI28246
NsI28248
I2497
sI28250
I57961
sI28253
NsI28254
NsI28255
I7922
sI28257
NsI28260
I8767
sI28261
I3215
sI28264
I3320
sI28266
I12874
sI28267
NsI28268
I60501
sI28269
I3215
sI28270
I8767
sI28271
I62000
sI28272
I47992
sI28273
I198537
sI28275
I12322
sI28276
I12844
sI28277
I16302
sI28280
I31334
sI28281
NsI28282
I6848
sI28283
I24904
sI28284
I8208
sI28285
I29422
sI28286
I15557
sI28287
I3320
sI28288
NsI28289
NsI28290
I5432
sI28292
I719
sI28293
I3209
sI28295
NsI28296
I3320
sI28298
I203489
sI28299
NsI28300
NsI28301
NsI28302
I3215
sI28304
I198651
sI28305
I12844
sI28306
NsI28307
NsI28308
I202089
sI28309
NsI28310
I12322
sI28312
I48526
sI28313
I203453
sI28314
I7922
sI28315
I15600
sI28316
NsI28317
I60501
sI28318
I3215
sI28319
I44424
sI28321
NsI28322
I3215
sI28323
NsI28324
I48943
sI28325
I3269
sI28326
I60630
sI28327
I3320
sI28329
I31642
sI28330
NsI28331
I12322
sI28332
I5410
sI28333
I12322
sI28334
I8829
sI28338
I9044
sI28340
NsI28341
NsI28342
I1759
sI28344
I2516
sI28345
NsI28346
NsI28347
I20836
sI28348
I29317
sI28350
I12322
sI28351
I35540
sI28352
I17506
sI28353
NsI28354
NsI28356
I49713
sI28357
I3269
sI28359
I4739
sI28360
NsI28361
I31272
sI28363
NsI28369
I29695
sI28372
I200001
sI28373
I3320
sI28377
I2497
sI28379
NsI28382
NsI28385
I3215
sI28386
I3269
sI28388
I12322
sI28389
NsI28390
I12844
sI28391
NsI28392
I3301
sI28393
I5410
sI28394
I12322
sI28397
I4713
sI28400
I3215
sI28402
I39651
sI28403
NsI28404
I5432
sI28405
I15962
sI28406
NsI28407
I3303
sI28408
I12322
sI28409
NsI28410
I31167
sI28411
NsI28412
I200077
sI28413
I30848
sI28414
NsI28415
NsI28416
I12392
sI28417
I33885
sI28418
I12844
sI28419
I3215
sI28420
NsI28421
I31334
sI28422
NsI28423
I48803
sI28424
NsI28425
I6939
sI28426
NsI28427
NsI28429
I3243
sI28430
I12874
sI28431
I8283
sI28432
I21309
sI28433
I47656
sI28435
I1267
sI28436
I3215
sI28437
I36914
sI28438
I12871
sI28439
NsI28441
I42852
sI28442
I41781
sI28443
NsI28444
NsI28445
NsI28446
NsI28447
I6830
sI28448
I23889
sI28449
NsI28450
I13030
sI28451
I197288
sI28452
I6830
sI28453
NsI28454
I21250
sI28455
I719
sI28456
I15557
sI28457
I9146
sI28458
NsI28459
I8821
sI28460
I680
sI28461
I57961
sI28462
I6882
sI28463
I680
sI28464
NsI28465
NsI28466
NsI28467
I13188
sI28468
NsI28469
NsI28470
I9143
sI28471
I23678
sI28472
I15435
sI28473
I2107
sI28474
NsI28475
I6830
sI28476
I1136
sI28477
NsI28478
I1759
sI28479
NsI28480
NsI28481
I3215
sI28482
NsI28483
I12874
sI28485
NsI28486
NsI28488
I15516
sI28489
I12322
sI28490
I197922
sI28491
I9143
sI28492
I2860
sI28493
I8346
sI28494
I10620
sI28495
I31027
sI28496
I42003
sI28497
NsI28498
I3265
sI28499
I12874
sI28500
I6871
sI28502
NsI28503
NsI28504
NsI28505
NsI28506
I50071
sI28508
I13127
sI28509
I29587
sI28511
I20115
sI28512
I9143
sI28513
I12709
sI28514
I9143
sI28515
NsI28516
I61174
sI28517
I5432
sI28518
NsI28519
I203752
sI28520
NsI28521
NsI28522
NsI28523
I15547
sI28524
NsI28525
NsI28526
NsI28527
NsI28528
NsI28529
I7018
sI28530
I37346
sI28531
I15516
sI28532
NsI28533
I5645
sI28534
I3265
sI28535
I8732
sI28536
NsI28537
I7922
sI28538
I3269
sI28539
I7922
sI28540
NsI28542
I3265
sI28544
NsI28545
NsI28546
I9897
sI28547
I2516
sI28548
I20632
sI28549
NsI28550
I5390
sI28551
I4739
sI28552
I4788
sI28553
NsI28554
I1221
sI28555
NsI28556
NsI28557
NsI28559
I6849
sI28561
NsI28562
I35807
sI28563
I50245
sI28565
I9121
sI28566
I39309
sI28567
I21309
sI28568
I15895
sI28571
NsI28572
I9143
sI28573
I9318
sI28574
I63956
sI28575
I4771
sI28576
NsI28577
I21502
sI28578
NsI28579
I31334
sI28580
I2860
sI28581
NsI28582
I3320
sI28583
I3212
sI28584
NsI28587
I9143
sI28588
I3741
sI28589
NsI28590
NsI28591
I4788
sI28592
I17385
sI28594
I28685
sI28595
NsI28596
NsI28597
I8047
sI28598
NsI28613
I9506
sI28800
I5089
sI28801
NsI28803
I55803
sI28805
NsI28809
NsI28811
I3741
sI28812
NsI28814
I4788
sI28816
I9143
sI28817
NsI28823
NsI28824
I10204
sI28825
I33363
sI28826
I45725
sI28827
NsI28828
NsI28831
I5089
sI28832
I11404
sI28834
NsI28835
NsI28836
NsI28837
I135014
sI28839
NsI28842
I2497
sI28843
NsI28844
I55944
sI28852
NsI28853
NsI28854
I200161
sI28855
NsI28856
I12871
sI28859
I203421
sI28860
I9143
sI28861
NsI28863
NsI28864
I54054
sI28865
I7922
sI28866
NsI28867
NsI28868
I4788
sI28869
I9143
sI28870
I9143
sI28871
NsI28872
I4768
sI28873
NsI28874
I9297
sI28875
NsI28876
NsI28877
NsI28879
I9829
s.